

Microchip MPLAB XC8 Assembler V3.00 build 20241204225717 
                                                                                               Mon Mar 09 16:52:53 2026

Microchip MPLAB XC8 C Compiler v3.00 (Free license) build 20241204225717 Og1 
     1                           	processor	18F4321
     2                           	fnconf	rparam,??,?,0
     3                           	pagewidth 120
     4                           	opt	flic
     5                           	psect	idataCOMRAM,global,class=CODE,space=0,delta=1,noexec
     6                           	psect	mediumconst,global,reloc=2,class=MEDIUMCONST,space=0,delta=1,noexec
     7                           	psect	cinit,global,reloc=2,class=CODE,space=0,delta=1
     8                           	psect	bssCOMRAM,global,class=COMRAM,space=1,delta=1,lowdata,noexec
     9                           	psect	dataCOMRAM,global,class=COMRAM,space=1,delta=1,lowdata,noexec
    10                           	psect	bssBANK0,global,class=BANK0,space=1,delta=1,lowdata,noexec
    11                           	psect	cstackCOMRAM,global,class=COMRAM,space=1,delta=1,lowdata,noexec
    12                           	psect	text0,global,reloc=2,class=CODE,space=0,delta=1
    13                           	psect	text1,global,reloc=2,class=CODE,space=0,delta=1
    14                           	psect	text2,global,reloc=2,class=CODE,space=0,delta=1
    15                           	psect	text3,global,reloc=2,class=CODE,space=0,delta=1
    16                           	psect	text4,global,reloc=2,class=CODE,space=0,delta=1
    17                           	psect	text5,global,reloc=2,class=CODE,space=0,delta=1
    18                           	psect	text6,global,reloc=2,class=CODE,space=0,delta=1
    19                           	psect	text7,global,reloc=2,class=CODE,space=0,delta=1
    20                           	psect	text8,global,reloc=2,class=CODE,space=0,delta=1
    21                           	psect	text9,global,reloc=2,class=CODE,space=0,delta=1
    22                           	psect	text10,global,reloc=2,class=CODE,space=0,delta=1
    23                           	psect	text11,global,reloc=2,class=CODE,space=0,delta=1
    24                           	psect	text12,global,reloc=2,class=CODE,space=0,delta=1
    25                           	psect	text13,global,reloc=2,class=CODE,space=0,delta=1
    26                           	psect	text14,global,reloc=2,class=CODE,space=0,delta=1
    27                           	psect	text15,global,reloc=2,class=CODE,space=0,delta=1
    28                           	psect	text16,global,reloc=2,class=CODE,space=0,delta=1
    29                           	psect	text17,global,reloc=2,class=CODE,space=0,delta=1
    30                           	psect	text18,global,reloc=2,class=CODE,space=0,delta=1
    31                           	psect	text19,global,reloc=2,class=CODE,space=0,delta=1
    32                           	psect	text20,global,reloc=2,class=CODE,space=0,delta=1
    33                           	psect	text21,global,reloc=2,class=CODE,space=0,delta=1
    34                           	psect	text22,global,reloc=2,class=CODE,space=0,delta=1
    35                           	psect	text23,global,reloc=2,class=CODE,space=0,delta=1
    36                           	psect	text24,global,reloc=2,class=CODE,space=0,delta=1
    37                           	psect	text25,global,reloc=2,class=CODE,space=0,delta=1
    38                           	psect	text26,global,reloc=2,class=CODE,space=0,delta=1
    39                           	psect	text27,global,reloc=2,class=CODE,space=0,delta=1
    40                           	psect	text28,global,reloc=2,class=CODE,space=0,delta=1
    41                           	psect	text29,global,reloc=2,class=CODE,space=0,delta=1
    42                           	psect	text30,global,reloc=2,class=CODE,space=0,delta=1
    43                           	psect	text31,global,reloc=2,class=CODE,space=0,delta=1
    44                           	psect	text32,global,reloc=2,class=CODE,space=0,delta=1
    45                           	psect	text33,global,reloc=2,class=CODE,space=0,delta=1
    46                           	psect	text34,global,reloc=2,class=CODE,space=0,delta=1
    47                           	psect	text35,global,reloc=2,class=CODE,space=0,delta=1
    48                           	psect	text36,global,reloc=2,class=CODE,space=0,delta=1
    49                           	psect	intcode,global,reloc=2,class=CODE,space=0,delta=1
    50                           	psect	text38,global,reloc=2,class=CODE,space=0,delta=1
    51                           	psect	intsave_regs,global,class=BIGRAM,space=1,delta=1,noexec
    52                           	psect	rparam,global,class=COMRAM,space=1,delta=1,noexec
    53                           	psect	temp,global,ovrld,common,class=COMRAM,space=1,delta=1,lowdata
    54                           	psect	idloc,global,abs,ovrld,class=IDLOC,space=5,delta=1,noexec
    55                           	psect	config,global,abs,ovrld,class=CONFIG,space=4,delta=1,noexec
    56   000000                     
    57                           ; Generated 05/12/2024 GMT
    58                           ; 
    59                           ; Copyright © 2024, Microchip Technology Inc. and its subsidiaries ("Microchip")
    60                           ; All rights reserved.
    61                           ; 
    62                           ; This software is developed by Microchip Technology Inc. and its subsidiaries ("Microch
      +                          ip").
    63                           ; 
    64                           ; Redistribution and use in source and binary forms, with or without modification, are
    65                           ; permitted provided that the following conditions are met:
    66                           ; 
    67                           ;     1. Redistributions of source code must retain the above copyright notice, this lis
      +                          t of
    68                           ;        conditions and the following disclaimer.
    69                           ; 
    70                           ;     2. Redistributions in binary form must reproduce the above copyright notice, this 
      +                          list
    71                           ;        of conditions and the following disclaimer in the documentation and/or other
    72                           ;        materials provided with the distribution. Publication is not required when
    73                           ;        this file is used in an embedded application.
    74                           ; 
    75                           ;     3. Microchip's name may not be used to endorse or promote products derived from th
      +                          is
    76                           ;        software without specific prior written permission.
    77                           ; 
    78                           ; THIS SOFTWARE IS PROVIDED BY MICROCHIP "AS IS" AND ANY EXPRESS OR IMPLIED WARRANTIES,
    79                           ; INCLUDING, BUT NOT LIMITED TO, THE IMPLIED WARRANTIES OF MERCHANTABILITY AND FITNESS F
      +                          OR
    80                           ; PURPOSE ARE DISCLAIMED.  IN NO EVENT SHALL MICROCHIP BE LIABLE FOR ANY DIRECT, INDIREC
      +                          T,
    81                           ; INCIDENTAL, SPECIAL, EXEMPLARY, OR CONSEQUENTIAL DAMAGES (INCLUDING BUT NOT LIMITED TO
    82                           ; PROCUREMENT OF SUBSTITUTE GOODS OR SERVICES; LOSS OF USE, DATA OR PROFITS; OR BUSINESS
    83                           ; INTERRUPTION) HOWSOEVER CAUSED AND ON ANY THEORY OF LIABILITY, WHETHER IN CONTRACT, ST
      +                          RICT
    84                           ; LIABILITY, OR TORT (INCLUDING NEGLIGENCE OR OTHERWISE) ARISING IN ANY WAY OUT OF THE U
      +                          SE OF
    85                           ; THIS SOFTWARE, EVEN IF ADVISED OF THE POSSIBILITY OF SUCH DAMAGE.
    86                           ; 
    87                           ; 
    88                           ; Code-generator required, PIC18F4321 Definitions
    89                           ; 
    90                           ; SFR Addresses
    91   000FE0                     bsr             equ	4064
    92   000FE9                     fsr0            equ	4073
    93   000FEA                     fsr0h           equ	4074
    94   000FE9                     fsr0l           equ	4073
    95   000FE1                     fsr1            equ	4065
    96   000FE2                     fsr1h           equ	4066
    97   000FE1                     fsr1l           equ	4065
    98   000FD9                     fsr2            equ	4057
    99   000FDA                     fsr2h           equ	4058
   100   000FD9                     fsr2l           equ	4057
   101   000FEF                     indf0           equ	4079
   102   000FE7                     indf1           equ	4071
   103   000FDF                     indf2           equ	4063
   104   000FF2                     intcon          equ	4082
   105   000000                     nvmcon          equ	0
   106   000FF9                     pcl             equ	4089
   107   000FFA                     pclath          equ	4090
   108   000FFB                     pclatu          equ	4091
   109   000FEB                     plusw0          equ	4075
   110   000FE3                     plusw1          equ	4067
   111   000FDB                     plusw2          equ	4059
   112   000FED                     postdec0        equ	4077
   113   000FE5                     postdec1        equ	4069
   114   000FDD                     postdec2        equ	4061
   115   000FEE                     postinc0        equ	4078
   116   000FE6                     postinc1        equ	4070
   117   000FDE                     postinc2        equ	4062
   118   000FEC                     preinc0         equ	4076
   119   000FE4                     preinc1         equ	4068
   120   000FDC                     preinc2         equ	4060
   121   000FF3                     prod            equ	4083
   122   000FF4                     prodh           equ	4084
   123   000FF3                     prodl           equ	4083
   124   000FD8                     status          equ	4056
   125   000FF5                     tablat          equ	4085
   126   000FF6                     tblptr          equ	4086
   127   000FF7                     tblptrh         equ	4087
   128   000FF6                     tblptrl         equ	4086
   129   000FF8                     tblptru         equ	4088
   130   000FFD                     tosl            equ	4093
   131   000FE8                     wreg            equ	4072
   132   000F80                     PORTA           equ	3968	;# 
   133   000F81                     PORTB           equ	3969	;# 
   134   000F82                     PORTC           equ	3970	;# 
   135   000F83                     PORTD           equ	3971	;# 
   136   000F84                     PORTE           equ	3972	;# 
   137   000F89                     LATA            equ	3977	;# 
   138   000F8A                     LATB            equ	3978	;# 
   139   000F8B                     LATC            equ	3979	;# 
   140   000F8C                     LATD            equ	3980	;# 
   141   000F8D                     LATE            equ	3981	;# 
   142   000F92                     TRISA           equ	3986	;# 
   143   000F92                     DDRA            equ	3986	;# 
   144   000F93                     TRISB           equ	3987	;# 
   145   000F93                     DDRB            equ	3987	;# 
   146   000F94                     TRISC           equ	3988	;# 
   147   000F94                     DDRC            equ	3988	;# 
   148   000F95                     TRISD           equ	3989	;# 
   149   000F95                     DDRD            equ	3989	;# 
   150   000F96                     TRISE           equ	3990	;# 
   151   000F96                     DDRE            equ	3990	;# 
   152   000F9B                     OSCTUNE         equ	3995	;# 
   153   000F9D                     PIE1            equ	3997	;# 
   154   000F9E                     PIR1            equ	3998	;# 
   155   000F9F                     IPR1            equ	3999	;# 
   156   000FA0                     PIE2            equ	4000	;# 
   157   000FA1                     PIR2            equ	4001	;# 
   158   000FA2                     IPR2            equ	4002	;# 
   159   000FA6                     EECON1          equ	4006	;# 
   160   000FA7                     EECON2          equ	4007	;# 
   161   000FA8                     EEDATA          equ	4008	;# 
   162   000FA9                     EEADR           equ	4009	;# 
   163   000FAB                     RCSTA           equ	4011	;# 
   164   000FAB                     RCSTA1          equ	4011	;# 
   165   000FAC                     TXSTA           equ	4012	;# 
   166   000FAC                     TXSTA1          equ	4012	;# 
   167   000FAD                     TXREG           equ	4013	;# 
   168   000FAD                     TXREG1          equ	4013	;# 
   169   000FAE                     RCREG           equ	4014	;# 
   170   000FAE                     RCREG1          equ	4014	;# 
   171   000FAF                     SPBRG           equ	4015	;# 
   172   000FAF                     SPBRG1          equ	4015	;# 
   173   000FB0                     SPBRGH          equ	4016	;# 
   174   000FB1                     T3CON           equ	4017	;# 
   175   000FB2                     TMR3            equ	4018	;# 
   176   000FB2                     TMR3L           equ	4018	;# 
   177   000FB3                     TMR3H           equ	4019	;# 
   178   000FB4                     CMCON           equ	4020	;# 
   179   000FB5                     CVRCON          equ	4021	;# 
   180   000FB6                     ECCP1AS         equ	4022	;# 
   181   000FB7                     ECCP1DEL        equ	4023	;# 
   182   000FB7                     PWM1CON         equ	4023	;# 
   183   000FB8                     BAUDCON         equ	4024	;# 
   184   000FB8                     BAUDCTL         equ	4024	;# 
   185   000FBA                     CCP2CON         equ	4026	;# 
   186   000FBB                     CCPR2           equ	4027	;# 
   187   000FBB                     CCPR2L          equ	4027	;# 
   188   000FBC                     CCPR2H          equ	4028	;# 
   189   000FBD                     CCP1CON         equ	4029	;# 
   190   000FBD                     ECCP1CON        equ	4029	;# 
   191   000FBE                     CCPR1           equ	4030	;# 
   192   000FBE                     CCPR1L          equ	4030	;# 
   193   000FBF                     CCPR1H          equ	4031	;# 
   194   000FC0                     ADCON2          equ	4032	;# 
   195   000FC1                     ADCON1          equ	4033	;# 
   196   000FC2                     ADCON0          equ	4034	;# 
   197   000FC3                     ADRES           equ	4035	;# 
   198   000FC3                     ADRESL          equ	4035	;# 
   199   000FC4                     ADRESH          equ	4036	;# 
   200   000FC5                     SSPCON2         equ	4037	;# 
   201   000FC6                     SSPCON1         equ	4038	;# 
   202   000FC7                     SSPSTAT         equ	4039	;# 
   203   000FC8                     SSPADD          equ	4040	;# 
   204   000FC9                     SSPBUF          equ	4041	;# 
   205   000FCA                     T2CON           equ	4042	;# 
   206   000FCB                     PR2             equ	4043	;# 
   207   000FCB                     MEMCON          equ	4043	;# 
   208   000FCC                     TMR2            equ	4044	;# 
   209   000FCD                     T1CON           equ	4045	;# 
   210   000FCE                     TMR1            equ	4046	;# 
   211   000FCE                     TMR1L           equ	4046	;# 
   212   000FCF                     TMR1H           equ	4047	;# 
   213   000FD0                     RCON            equ	4048	;# 
   214   000FD1                     WDTCON          equ	4049	;# 
   215   000FD2                     HLVDCON         equ	4050	;# 
   216   000FD2                     LVDCON          equ	4050	;# 
   217   000FD3                     OSCCON          equ	4051	;# 
   218   000FD5                     T0CON           equ	4053	;# 
   219   000FD6                     TMR0            equ	4054	;# 
   220   000FD6                     TMR0L           equ	4054	;# 
   221   000FD7                     TMR0H           equ	4055	;# 
   222   000FD8                     STATUS          equ	4056	;# 
   223   000FD9                     FSR2            equ	4057	;# 
   224   000FD9                     FSR2L           equ	4057	;# 
   225   000FDA                     FSR2H           equ	4058	;# 
   226   000FDB                     PLUSW2          equ	4059	;# 
   227   000FDC                     PREINC2         equ	4060	;# 
   228   000FDD                     POSTDEC2        equ	4061	;# 
   229   000FDE                     POSTINC2        equ	4062	;# 
   230   000FDF                     INDF2           equ	4063	;# 
   231   000FE0                     BSR             equ	4064	;# 
   232   000FE1                     FSR1            equ	4065	;# 
   233   000FE1                     FSR1L           equ	4065	;# 
   234   000FE2                     FSR1H           equ	4066	;# 
   235   000FE3                     PLUSW1          equ	4067	;# 
   236   000FE4                     PREINC1         equ	4068	;# 
   237   000FE5                     POSTDEC1        equ	4069	;# 
   238   000FE6                     POSTINC1        equ	4070	;# 
   239   000FE7                     INDF1           equ	4071	;# 
   240   000FE8                     WREG            equ	4072	;# 
   241   000FE9                     FSR0            equ	4073	;# 
   242   000FE9                     FSR0L           equ	4073	;# 
   243   000FEA                     FSR0H           equ	4074	;# 
   244   000FEB                     PLUSW0          equ	4075	;# 
   245   000FEC                     PREINC0         equ	4076	;# 
   246   000FED                     POSTDEC0        equ	4077	;# 
   247   000FEE                     POSTINC0        equ	4078	;# 
   248   000FEF                     INDF0           equ	4079	;# 
   249   000FF0                     INTCON3         equ	4080	;# 
   250   000FF1                     INTCON2         equ	4081	;# 
   251   000FF2                     INTCON          equ	4082	;# 
   252   000FF3                     PROD            equ	4083	;# 
   253   000FF3                     PRODL           equ	4083	;# 
   254   000FF4                     PRODH           equ	4084	;# 
   255   000FF5                     TABLAT          equ	4085	;# 
   256   000FF6                     TBLPTR          equ	4086	;# 
   257   000FF6                     TBLPTRL         equ	4086	;# 
   258   000FF7                     TBLPTRH         equ	4087	;# 
   259   000FF8                     TBLPTRU         equ	4088	;# 
   260   000FF9                     PCLAT           equ	4089	;# 
   261   000FF9                     PC              equ	4089	;# 
   262   000FF9                     PCL             equ	4089	;# 
   263   000FFA                     PCLATH          equ	4090	;# 
   264   000FFB                     PCLATU          equ	4091	;# 
   265   000FFC                     STKPTR          equ	4092	;# 
   266   000FFD                     TOS             equ	4093	;# 
   267   000FFD                     TOSL            equ	4093	;# 
   268   000FFE                     TOSH            equ	4094	;# 
   269   000FFF                     TOSU            equ	4095	;# 
   270   000F80                     PORTA           equ	3968	;# 
   271   000F81                     PORTB           equ	3969	;# 
   272   000F82                     PORTC           equ	3970	;# 
   273   000F83                     PORTD           equ	3971	;# 
   274   000F84                     PORTE           equ	3972	;# 
   275   000F89                     LATA            equ	3977	;# 
   276   000F8A                     LATB            equ	3978	;# 
   277   000F8B                     LATC            equ	3979	;# 
   278   000F8C                     LATD            equ	3980	;# 
   279   000F8D                     LATE            equ	3981	;# 
   280   000F92                     TRISA           equ	3986	;# 
   281   000F92                     DDRA            equ	3986	;# 
   282   000F93                     TRISB           equ	3987	;# 
   283   000F93                     DDRB            equ	3987	;# 
   284   000F94                     TRISC           equ	3988	;# 
   285   000F94                     DDRC            equ	3988	;# 
   286   000F95                     TRISD           equ	3989	;# 
   287   000F95                     DDRD            equ	3989	;# 
   288   000F96                     TRISE           equ	3990	;# 
   289   000F96                     DDRE            equ	3990	;# 
   290   000F9B                     OSCTUNE         equ	3995	;# 
   291   000F9D                     PIE1            equ	3997	;# 
   292   000F9E                     PIR1            equ	3998	;# 
   293   000F9F                     IPR1            equ	3999	;# 
   294   000FA0                     PIE2            equ	4000	;# 
   295   000FA1                     PIR2            equ	4001	;# 
   296   000FA2                     IPR2            equ	4002	;# 
   297   000FA6                     EECON1          equ	4006	;# 
   298   000FA7                     EECON2          equ	4007	;# 
   299   000FA8                     EEDATA          equ	4008	;# 
   300   000FA9                     EEADR           equ	4009	;# 
   301   000FAB                     RCSTA           equ	4011	;# 
   302   000FAB                     RCSTA1          equ	4011	;# 
   303   000FAC                     TXSTA           equ	4012	;# 
   304   000FAC                     TXSTA1          equ	4012	;# 
   305   000FAD                     TXREG           equ	4013	;# 
   306   000FAD                     TXREG1          equ	4013	;# 
   307   000FAE                     RCREG           equ	4014	;# 
   308   000FAE                     RCREG1          equ	4014	;# 
   309   000FAF                     SPBRG           equ	4015	;# 
   310   000FAF                     SPBRG1          equ	4015	;# 
   311   000FB0                     SPBRGH          equ	4016	;# 
   312   000FB1                     T3CON           equ	4017	;# 
   313   000FB2                     TMR3            equ	4018	;# 
   314   000FB2                     TMR3L           equ	4018	;# 
   315   000FB3                     TMR3H           equ	4019	;# 
   316   000FB4                     CMCON           equ	4020	;# 
   317   000FB5                     CVRCON          equ	4021	;# 
   318   000FB6                     ECCP1AS         equ	4022	;# 
   319   000FB7                     ECCP1DEL        equ	4023	;# 
   320   000FB7                     PWM1CON         equ	4023	;# 
   321   000FB8                     BAUDCON         equ	4024	;# 
   322   000FB8                     BAUDCTL         equ	4024	;# 
   323   000FBA                     CCP2CON         equ	4026	;# 
   324   000FBB                     CCPR2           equ	4027	;# 
   325   000FBB                     CCPR2L          equ	4027	;# 
   326   000FBC                     CCPR2H          equ	4028	;# 
   327   000FBD                     CCP1CON         equ	4029	;# 
   328   000FBD                     ECCP1CON        equ	4029	;# 
   329   000FBE                     CCPR1           equ	4030	;# 
   330   000FBE                     CCPR1L          equ	4030	;# 
   331   000FBF                     CCPR1H          equ	4031	;# 
   332   000FC0                     ADCON2          equ	4032	;# 
   333   000FC1                     ADCON1          equ	4033	;# 
   334   000FC2                     ADCON0          equ	4034	;# 
   335   000FC3                     ADRES           equ	4035	;# 
   336   000FC3                     ADRESL          equ	4035	;# 
   337   000FC4                     ADRESH          equ	4036	;# 
   338   000FC5                     SSPCON2         equ	4037	;# 
   339   000FC6                     SSPCON1         equ	4038	;# 
   340   000FC7                     SSPSTAT         equ	4039	;# 
   341   000FC8                     SSPADD          equ	4040	;# 
   342   000FC9                     SSPBUF          equ	4041	;# 
   343   000FCA                     T2CON           equ	4042	;# 
   344   000FCB                     PR2             equ	4043	;# 
   345   000FCB                     MEMCON          equ	4043	;# 
   346   000FCC                     TMR2            equ	4044	;# 
   347   000FCD                     T1CON           equ	4045	;# 
   348   000FCE                     TMR1            equ	4046	;# 
   349   000FCE                     TMR1L           equ	4046	;# 
   350   000FCF                     TMR1H           equ	4047	;# 
   351   000FD0                     RCON            equ	4048	;# 
   352   000FD1                     WDTCON          equ	4049	;# 
   353   000FD2                     HLVDCON         equ	4050	;# 
   354   000FD2                     LVDCON          equ	4050	;# 
   355   000FD3                     OSCCON          equ	4051	;# 
   356   000FD5                     T0CON           equ	4053	;# 
   357   000FD6                     TMR0            equ	4054	;# 
   358   000FD6                     TMR0L           equ	4054	;# 
   359   000FD7                     TMR0H           equ	4055	;# 
   360   000FD8                     STATUS          equ	4056	;# 
   361   000FD9                     FSR2            equ	4057	;# 
   362   000FD9                     FSR2L           equ	4057	;# 
   363   000FDA                     FSR2H           equ	4058	;# 
   364   000FDB                     PLUSW2          equ	4059	;# 
   365   000FDC                     PREINC2         equ	4060	;# 
   366   000FDD                     POSTDEC2        equ	4061	;# 
   367   000FDE                     POSTINC2        equ	4062	;# 
   368   000FDF                     INDF2           equ	4063	;# 
   369   000FE0                     BSR             equ	4064	;# 
   370   000FE1                     FSR1            equ	4065	;# 
   371   000FE1                     FSR1L           equ	4065	;# 
   372   000FE2                     FSR1H           equ	4066	;# 
   373   000FE3                     PLUSW1          equ	4067	;# 
   374   000FE4                     PREINC1         equ	4068	;# 
   375   000FE5                     POSTDEC1        equ	4069	;# 
   376   000FE6                     POSTINC1        equ	4070	;# 
   377   000FE7                     INDF1           equ	4071	;# 
   378   000FE8                     WREG            equ	4072	;# 
   379   000FE9                     FSR0            equ	4073	;# 
   380   000FE9                     FSR0L           equ	4073	;# 
   381   000FEA                     FSR0H           equ	4074	;# 
   382   000FEB                     PLUSW0          equ	4075	;# 
   383   000FEC                     PREINC0         equ	4076	;# 
   384   000FED                     POSTDEC0        equ	4077	;# 
   385   000FEE                     POSTINC0        equ	4078	;# 
   386   000FEF                     INDF0           equ	4079	;# 
   387   000FF0                     INTCON3         equ	4080	;# 
   388   000FF1                     INTCON2         equ	4081	;# 
   389   000FF2                     INTCON          equ	4082	;# 
   390   000FF3                     PROD            equ	4083	;# 
   391   000FF3                     PRODL           equ	4083	;# 
   392   000FF4                     PRODH           equ	4084	;# 
   393   000FF5                     TABLAT          equ	4085	;# 
   394   000FF6                     TBLPTR          equ	4086	;# 
   395   000FF6                     TBLPTRL         equ	4086	;# 
   396   000FF7                     TBLPTRH         equ	4087	;# 
   397   000FF8                     TBLPTRU         equ	4088	;# 
   398   000FF9                     PCLAT           equ	4089	;# 
   399   000FF9                     PC              equ	4089	;# 
   400   000FF9                     PCL             equ	4089	;# 
   401   000FFA                     PCLATH          equ	4090	;# 
   402   000FFB                     PCLATU          equ	4091	;# 
   403   000FFC                     STKPTR          equ	4092	;# 
   404   000FFD                     TOS             equ	4093	;# 
   405   000FFD                     TOSL            equ	4093	;# 
   406   000FFE                     TOSH            equ	4094	;# 
   407   000FFF                     TOSU            equ	4095	;# 
   408   000F80                     PORTA           equ	3968	;# 
   409   000F81                     PORTB           equ	3969	;# 
   410   000F82                     PORTC           equ	3970	;# 
   411   000F83                     PORTD           equ	3971	;# 
   412   000F84                     PORTE           equ	3972	;# 
   413   000F89                     LATA            equ	3977	;# 
   414   000F8A                     LATB            equ	3978	;# 
   415   000F8B                     LATC            equ	3979	;# 
   416   000F8C                     LATD            equ	3980	;# 
   417   000F8D                     LATE            equ	3981	;# 
   418   000F92                     TRISA           equ	3986	;# 
   419   000F92                     DDRA            equ	3986	;# 
   420   000F93                     TRISB           equ	3987	;# 
   421   000F93                     DDRB            equ	3987	;# 
   422   000F94                     TRISC           equ	3988	;# 
   423   000F94                     DDRC            equ	3988	;# 
   424   000F95                     TRISD           equ	3989	;# 
   425   000F95                     DDRD            equ	3989	;# 
   426   000F96                     TRISE           equ	3990	;# 
   427   000F96                     DDRE            equ	3990	;# 
   428   000F9B                     OSCTUNE         equ	3995	;# 
   429   000F9D                     PIE1            equ	3997	;# 
   430   000F9E                     PIR1            equ	3998	;# 
   431   000F9F                     IPR1            equ	3999	;# 
   432   000FA0                     PIE2            equ	4000	;# 
   433   000FA1                     PIR2            equ	4001	;# 
   434   000FA2                     IPR2            equ	4002	;# 
   435   000FA6                     EECON1          equ	4006	;# 
   436   000FA7                     EECON2          equ	4007	;# 
   437   000FA8                     EEDATA          equ	4008	;# 
   438   000FA9                     EEADR           equ	4009	;# 
   439   000FAB                     RCSTA           equ	4011	;# 
   440   000FAB                     RCSTA1          equ	4011	;# 
   441   000FAC                     TXSTA           equ	4012	;# 
   442   000FAC                     TXSTA1          equ	4012	;# 
   443   000FAD                     TXREG           equ	4013	;# 
   444   000FAD                     TXREG1          equ	4013	;# 
   445   000FAE                     RCREG           equ	4014	;# 
   446   000FAE                     RCREG1          equ	4014	;# 
   447   000FAF                     SPBRG           equ	4015	;# 
   448   000FAF                     SPBRG1          equ	4015	;# 
   449   000FB0                     SPBRGH          equ	4016	;# 
   450   000FB1                     T3CON           equ	4017	;# 
   451   000FB2                     TMR3            equ	4018	;# 
   452   000FB2                     TMR3L           equ	4018	;# 
   453   000FB3                     TMR3H           equ	4019	;# 
   454   000FB4                     CMCON           equ	4020	;# 
   455   000FB5                     CVRCON          equ	4021	;# 
   456   000FB6                     ECCP1AS         equ	4022	;# 
   457   000FB7                     ECCP1DEL        equ	4023	;# 
   458   000FB7                     PWM1CON         equ	4023	;# 
   459   000FB8                     BAUDCON         equ	4024	;# 
   460   000FB8                     BAUDCTL         equ	4024	;# 
   461   000FBA                     CCP2CON         equ	4026	;# 
   462   000FBB                     CCPR2           equ	4027	;# 
   463   000FBB                     CCPR2L          equ	4027	;# 
   464   000FBC                     CCPR2H          equ	4028	;# 
   465   000FBD                     CCP1CON         equ	4029	;# 
   466   000FBD                     ECCP1CON        equ	4029	;# 
   467   000FBE                     CCPR1           equ	4030	;# 
   468   000FBE                     CCPR1L          equ	4030	;# 
   469   000FBF                     CCPR1H          equ	4031	;# 
   470   000FC0                     ADCON2          equ	4032	;# 
   471   000FC1                     ADCON1          equ	4033	;# 
   472   000FC2                     ADCON0          equ	4034	;# 
   473   000FC3                     ADRES           equ	4035	;# 
   474   000FC3                     ADRESL          equ	4035	;# 
   475   000FC4                     ADRESH          equ	4036	;# 
   476   000FC5                     SSPCON2         equ	4037	;# 
   477   000FC6                     SSPCON1         equ	4038	;# 
   478   000FC7                     SSPSTAT         equ	4039	;# 
   479   000FC8                     SSPADD          equ	4040	;# 
   480   000FC9                     SSPBUF          equ	4041	;# 
   481   000FCA                     T2CON           equ	4042	;# 
   482   000FCB                     PR2             equ	4043	;# 
   483   000FCB                     MEMCON          equ	4043	;# 
   484   000FCC                     TMR2            equ	4044	;# 
   485   000FCD                     T1CON           equ	4045	;# 
   486   000FCE                     TMR1            equ	4046	;# 
   487   000FCE                     TMR1L           equ	4046	;# 
   488   000FCF                     TMR1H           equ	4047	;# 
   489   000FD0                     RCON            equ	4048	;# 
   490   000FD1                     WDTCON          equ	4049	;# 
   491   000FD2                     HLVDCON         equ	4050	;# 
   492   000FD2                     LVDCON          equ	4050	;# 
   493   000FD3                     OSCCON          equ	4051	;# 
   494   000FD5                     T0CON           equ	4053	;# 
   495   000FD6                     TMR0            equ	4054	;# 
   496   000FD6                     TMR0L           equ	4054	;# 
   497   000FD7                     TMR0H           equ	4055	;# 
   498   000FD8                     STATUS          equ	4056	;# 
   499   000FD9                     FSR2            equ	4057	;# 
   500   000FD9                     FSR2L           equ	4057	;# 
   501   000FDA                     FSR2H           equ	4058	;# 
   502   000FDB                     PLUSW2          equ	4059	;# 
   503   000FDC                     PREINC2         equ	4060	;# 
   504   000FDD                     POSTDEC2        equ	4061	;# 
   505   000FDE                     POSTINC2        equ	4062	;# 
   506   000FDF                     INDF2           equ	4063	;# 
   507   000FE0                     BSR             equ	4064	;# 
   508   000FE1                     FSR1            equ	4065	;# 
   509   000FE1                     FSR1L           equ	4065	;# 
   510   000FE2                     FSR1H           equ	4066	;# 
   511   000FE3                     PLUSW1          equ	4067	;# 
   512   000FE4                     PREINC1         equ	4068	;# 
   513   000FE5                     POSTDEC1        equ	4069	;# 
   514   000FE6                     POSTINC1        equ	4070	;# 
   515   000FE7                     INDF1           equ	4071	;# 
   516   000FE8                     WREG            equ	4072	;# 
   517   000FE9                     FSR0            equ	4073	;# 
   518   000FE9                     FSR0L           equ	4073	;# 
   519   000FEA                     FSR0H           equ	4074	;# 
   520   000FEB                     PLUSW0          equ	4075	;# 
   521   000FEC                     PREINC0         equ	4076	;# 
   522   000FED                     POSTDEC0        equ	4077	;# 
   523   000FEE                     POSTINC0        equ	4078	;# 
   524   000FEF                     INDF0           equ	4079	;# 
   525   000FF0                     INTCON3         equ	4080	;# 
   526   000FF1                     INTCON2         equ	4081	;# 
   527   000FF2                     INTCON          equ	4082	;# 
   528   000FF3                     PROD            equ	4083	;# 
   529   000FF3                     PRODL           equ	4083	;# 
   530   000FF4                     PRODH           equ	4084	;# 
   531   000FF5                     TABLAT          equ	4085	;# 
   532   000FF6                     TBLPTR          equ	4086	;# 
   533   000FF6                     TBLPTRL         equ	4086	;# 
   534   000FF7                     TBLPTRH         equ	4087	;# 
   535   000FF8                     TBLPTRU         equ	4088	;# 
   536   000FF9                     PCLAT           equ	4089	;# 
   537   000FF9                     PC              equ	4089	;# 
   538   000FF9                     PCL             equ	4089	;# 
   539   000FFA                     PCLATH          equ	4090	;# 
   540   000FFB                     PCLATU          equ	4091	;# 
   541   000FFC                     STKPTR          equ	4092	;# 
   542   000FFD                     TOS             equ	4093	;# 
   543   000FFD                     TOSL            equ	4093	;# 
   544   000FFE                     TOSH            equ	4094	;# 
   545   000FFF                     TOSU            equ	4095	;# 
   546   000F80                     PORTA           equ	3968	;# 
   547   000F81                     PORTB           equ	3969	;# 
   548   000F82                     PORTC           equ	3970	;# 
   549   000F83                     PORTD           equ	3971	;# 
   550   000F84                     PORTE           equ	3972	;# 
   551   000F89                     LATA            equ	3977	;# 
   552   000F8A                     LATB            equ	3978	;# 
   553   000F8B                     LATC            equ	3979	;# 
   554   000F8C                     LATD            equ	3980	;# 
   555   000F8D                     LATE            equ	3981	;# 
   556   000F92                     TRISA           equ	3986	;# 
   557   000F92                     DDRA            equ	3986	;# 
   558   000F93                     TRISB           equ	3987	;# 
   559   000F93                     DDRB            equ	3987	;# 
   560   000F94                     TRISC           equ	3988	;# 
   561   000F94                     DDRC            equ	3988	;# 
   562   000F95                     TRISD           equ	3989	;# 
   563   000F95                     DDRD            equ	3989	;# 
   564   000F96                     TRISE           equ	3990	;# 
   565   000F96                     DDRE            equ	3990	;# 
   566   000F9B                     OSCTUNE         equ	3995	;# 
   567   000F9D                     PIE1            equ	3997	;# 
   568   000F9E                     PIR1            equ	3998	;# 
   569   000F9F                     IPR1            equ	3999	;# 
   570   000FA0                     PIE2            equ	4000	;# 
   571   000FA1                     PIR2            equ	4001	;# 
   572   000FA2                     IPR2            equ	4002	;# 
   573   000FA6                     EECON1          equ	4006	;# 
   574   000FA7                     EECON2          equ	4007	;# 
   575   000FA8                     EEDATA          equ	4008	;# 
   576   000FA9                     EEADR           equ	4009	;# 
   577   000FAB                     RCSTA           equ	4011	;# 
   578   000FAB                     RCSTA1          equ	4011	;# 
   579   000FAC                     TXSTA           equ	4012	;# 
   580   000FAC                     TXSTA1          equ	4012	;# 
   581   000FAD                     TXREG           equ	4013	;# 
   582   000FAD                     TXREG1          equ	4013	;# 
   583   000FAE                     RCREG           equ	4014	;# 
   584   000FAE                     RCREG1          equ	4014	;# 
   585   000FAF                     SPBRG           equ	4015	;# 
   586   000FAF                     SPBRG1          equ	4015	;# 
   587   000FB0                     SPBRGH          equ	4016	;# 
   588   000FB1                     T3CON           equ	4017	;# 
   589   000FB2                     TMR3            equ	4018	;# 
   590   000FB2                     TMR3L           equ	4018	;# 
   591   000FB3                     TMR3H           equ	4019	;# 
   592   000FB4                     CMCON           equ	4020	;# 
   593   000FB5                     CVRCON          equ	4021	;# 
   594   000FB6                     ECCP1AS         equ	4022	;# 
   595   000FB7                     ECCP1DEL        equ	4023	;# 
   596   000FB7                     PWM1CON         equ	4023	;# 
   597   000FB8                     BAUDCON         equ	4024	;# 
   598   000FB8                     BAUDCTL         equ	4024	;# 
   599   000FBA                     CCP2CON         equ	4026	;# 
   600   000FBB                     CCPR2           equ	4027	;# 
   601   000FBB                     CCPR2L          equ	4027	;# 
   602   000FBC                     CCPR2H          equ	4028	;# 
   603   000FBD                     CCP1CON         equ	4029	;# 
   604   000FBD                     ECCP1CON        equ	4029	;# 
   605   000FBE                     CCPR1           equ	4030	;# 
   606   000FBE                     CCPR1L          equ	4030	;# 
   607   000FBF                     CCPR1H          equ	4031	;# 
   608   000FC0                     ADCON2          equ	4032	;# 
   609   000FC1                     ADCON1          equ	4033	;# 
   610   000FC2                     ADCON0          equ	4034	;# 
   611   000FC3                     ADRES           equ	4035	;# 
   612   000FC3                     ADRESL          equ	4035	;# 
   613   000FC4                     ADRESH          equ	4036	;# 
   614   000FC5                     SSPCON2         equ	4037	;# 
   615   000FC6                     SSPCON1         equ	4038	;# 
   616   000FC7                     SSPSTAT         equ	4039	;# 
   617   000FC8                     SSPADD          equ	4040	;# 
   618   000FC9                     SSPBUF          equ	4041	;# 
   619   000FCA                     T2CON           equ	4042	;# 
   620   000FCB                     PR2             equ	4043	;# 
   621   000FCB                     MEMCON          equ	4043	;# 
   622   000FCC                     TMR2            equ	4044	;# 
   623   000FCD                     T1CON           equ	4045	;# 
   624   000FCE                     TMR1            equ	4046	;# 
   625   000FCE                     TMR1L           equ	4046	;# 
   626   000FCF                     TMR1H           equ	4047	;# 
   627   000FD0                     RCON            equ	4048	;# 
   628   000FD1                     WDTCON          equ	4049	;# 
   629   000FD2                     HLVDCON         equ	4050	;# 
   630   000FD2                     LVDCON          equ	4050	;# 
   631   000FD3                     OSCCON          equ	4051	;# 
   632   000FD5                     T0CON           equ	4053	;# 
   633   000FD6                     TMR0            equ	4054	;# 
   634   000FD6                     TMR0L           equ	4054	;# 
   635   000FD7                     TMR0H           equ	4055	;# 
   636   000FD8                     STATUS          equ	4056	;# 
   637   000FD9                     FSR2            equ	4057	;# 
   638   000FD9                     FSR2L           equ	4057	;# 
   639   000FDA                     FSR2H           equ	4058	;# 
   640   000FDB                     PLUSW2          equ	4059	;# 
   641   000FDC                     PREINC2         equ	4060	;# 
   642   000FDD                     POSTDEC2        equ	4061	;# 
   643   000FDE                     POSTINC2        equ	4062	;# 
   644   000FDF                     INDF2           equ	4063	;# 
   645   000FE0                     BSR             equ	4064	;# 
   646   000FE1                     FSR1            equ	4065	;# 
   647   000FE1                     FSR1L           equ	4065	;# 
   648   000FE2                     FSR1H           equ	4066	;# 
   649   000FE3                     PLUSW1          equ	4067	;# 
   650   000FE4                     PREINC1         equ	4068	;# 
   651   000FE5                     POSTDEC1        equ	4069	;# 
   652   000FE6                     POSTINC1        equ	4070	;# 
   653   000FE7                     INDF1           equ	4071	;# 
   654   000FE8                     WREG            equ	4072	;# 
   655   000FE9                     FSR0            equ	4073	;# 
   656   000FE9                     FSR0L           equ	4073	;# 
   657   000FEA                     FSR0H           equ	4074	;# 
   658   000FEB                     PLUSW0          equ	4075	;# 
   659   000FEC                     PREINC0         equ	4076	;# 
   660   000FED                     POSTDEC0        equ	4077	;# 
   661   000FEE                     POSTINC0        equ	4078	;# 
   662   000FEF                     INDF0           equ	4079	;# 
   663   000FF0                     INTCON3         equ	4080	;# 
   664   000FF1                     INTCON2         equ	4081	;# 
   665   000FF2                     INTCON          equ	4082	;# 
   666   000FF3                     PROD            equ	4083	;# 
   667   000FF3                     PRODL           equ	4083	;# 
   668   000FF4                     PRODH           equ	4084	;# 
   669   000FF5                     TABLAT          equ	4085	;# 
   670   000FF6                     TBLPTR          equ	4086	;# 
   671   000FF6                     TBLPTRL         equ	4086	;# 
   672   000FF7                     TBLPTRH         equ	4087	;# 
   673   000FF8                     TBLPTRU         equ	4088	;# 
   674   000FF9                     PCLAT           equ	4089	;# 
   675   000FF9                     PC              equ	4089	;# 
   676   000FF9                     PCL             equ	4089	;# 
   677   000FFA                     PCLATH          equ	4090	;# 
   678   000FFB                     PCLATU          equ	4091	;# 
   679   000FFC                     STKPTR          equ	4092	;# 
   680   000FFD                     TOS             equ	4093	;# 
   681   000FFD                     TOSL            equ	4093	;# 
   682   000FFE                     TOSH            equ	4094	;# 
   683   000FFF                     TOSU            equ	4095	;# 
   684   000F80                     PORTA           equ	3968	;# 
   685   000F81                     PORTB           equ	3969	;# 
   686   000F82                     PORTC           equ	3970	;# 
   687   000F83                     PORTD           equ	3971	;# 
   688   000F84                     PORTE           equ	3972	;# 
   689   000F89                     LATA            equ	3977	;# 
   690   000F8A                     LATB            equ	3978	;# 
   691   000F8B                     LATC            equ	3979	;# 
   692   000F8C                     LATD            equ	3980	;# 
   693   000F8D                     LATE            equ	3981	;# 
   694   000F92                     TRISA           equ	3986	;# 
   695   000F92                     DDRA            equ	3986	;# 
   696   000F93                     TRISB           equ	3987	;# 
   697   000F93                     DDRB            equ	3987	;# 
   698   000F94                     TRISC           equ	3988	;# 
   699   000F94                     DDRC            equ	3988	;# 
   700   000F95                     TRISD           equ	3989	;# 
   701   000F95                     DDRD            equ	3989	;# 
   702   000F96                     TRISE           equ	3990	;# 
   703   000F96                     DDRE            equ	3990	;# 
   704   000F9B                     OSCTUNE         equ	3995	;# 
   705   000F9D                     PIE1            equ	3997	;# 
   706   000F9E                     PIR1            equ	3998	;# 
   707   000F9F                     IPR1            equ	3999	;# 
   708   000FA0                     PIE2            equ	4000	;# 
   709   000FA1                     PIR2            equ	4001	;# 
   710   000FA2                     IPR2            equ	4002	;# 
   711   000FA6                     EECON1          equ	4006	;# 
   712   000FA7                     EECON2          equ	4007	;# 
   713   000FA8                     EEDATA          equ	4008	;# 
   714   000FA9                     EEADR           equ	4009	;# 
   715   000FAB                     RCSTA           equ	4011	;# 
   716   000FAB                     RCSTA1          equ	4011	;# 
   717   000FAC                     TXSTA           equ	4012	;# 
   718   000FAC                     TXSTA1          equ	4012	;# 
   719   000FAD                     TXREG           equ	4013	;# 
   720   000FAD                     TXREG1          equ	4013	;# 
   721   000FAE                     RCREG           equ	4014	;# 
   722   000FAE                     RCREG1          equ	4014	;# 
   723   000FAF                     SPBRG           equ	4015	;# 
   724   000FAF                     SPBRG1          equ	4015	;# 
   725   000FB0                     SPBRGH          equ	4016	;# 
   726   000FB1                     T3CON           equ	4017	;# 
   727   000FB2                     TMR3            equ	4018	;# 
   728   000FB2                     TMR3L           equ	4018	;# 
   729   000FB3                     TMR3H           equ	4019	;# 
   730   000FB4                     CMCON           equ	4020	;# 
   731   000FB5                     CVRCON          equ	4021	;# 
   732   000FB6                     ECCP1AS         equ	4022	;# 
   733   000FB7                     ECCP1DEL        equ	4023	;# 
   734   000FB7                     PWM1CON         equ	4023	;# 
   735   000FB8                     BAUDCON         equ	4024	;# 
   736   000FB8                     BAUDCTL         equ	4024	;# 
   737   000FBA                     CCP2CON         equ	4026	;# 
   738   000FBB                     CCPR2           equ	4027	;# 
   739   000FBB                     CCPR2L          equ	4027	;# 
   740   000FBC                     CCPR2H          equ	4028	;# 
   741   000FBD                     CCP1CON         equ	4029	;# 
   742   000FBD                     ECCP1CON        equ	4029	;# 
   743   000FBE                     CCPR1           equ	4030	;# 
   744   000FBE                     CCPR1L          equ	4030	;# 
   745   000FBF                     CCPR1H          equ	4031	;# 
   746   000FC0                     ADCON2          equ	4032	;# 
   747   000FC1                     ADCON1          equ	4033	;# 
   748   000FC2                     ADCON0          equ	4034	;# 
   749   000FC3                     ADRES           equ	4035	;# 
   750   000FC3                     ADRESL          equ	4035	;# 
   751   000FC4                     ADRESH          equ	4036	;# 
   752   000FC5                     SSPCON2         equ	4037	;# 
   753   000FC6                     SSPCON1         equ	4038	;# 
   754   000FC7                     SSPSTAT         equ	4039	;# 
   755   000FC8                     SSPADD          equ	4040	;# 
   756   000FC9                     SSPBUF          equ	4041	;# 
   757   000FCA                     T2CON           equ	4042	;# 
   758   000FCB                     PR2             equ	4043	;# 
   759   000FCB                     MEMCON          equ	4043	;# 
   760   000FCC                     TMR2            equ	4044	;# 
   761   000FCD                     T1CON           equ	4045	;# 
   762   000FCE                     TMR1            equ	4046	;# 
   763   000FCE                     TMR1L           equ	4046	;# 
   764   000FCF                     TMR1H           equ	4047	;# 
   765   000FD0                     RCON            equ	4048	;# 
   766   000FD1                     WDTCON          equ	4049	;# 
   767   000FD2                     HLVDCON         equ	4050	;# 
   768   000FD2                     LVDCON          equ	4050	;# 
   769   000FD3                     OSCCON          equ	4051	;# 
   770   000FD5                     T0CON           equ	4053	;# 
   771   000FD6                     TMR0            equ	4054	;# 
   772   000FD6                     TMR0L           equ	4054	;# 
   773   000FD7                     TMR0H           equ	4055	;# 
   774   000FD8                     STATUS          equ	4056	;# 
   775   000FD9                     FSR2            equ	4057	;# 
   776   000FD9                     FSR2L           equ	4057	;# 
   777   000FDA                     FSR2H           equ	4058	;# 
   778   000FDB                     PLUSW2          equ	4059	;# 
   779   000FDC                     PREINC2         equ	4060	;# 
   780   000FDD                     POSTDEC2        equ	4061	;# 
   781   000FDE                     POSTINC2        equ	4062	;# 
   782   000FDF                     INDF2           equ	4063	;# 
   783   000FE0                     BSR             equ	4064	;# 
   784   000FE1                     FSR1            equ	4065	;# 
   785   000FE1                     FSR1L           equ	4065	;# 
   786   000FE2                     FSR1H           equ	4066	;# 
   787   000FE3                     PLUSW1          equ	4067	;# 
   788   000FE4                     PREINC1         equ	4068	;# 
   789   000FE5                     POSTDEC1        equ	4069	;# 
   790   000FE6                     POSTINC1        equ	4070	;# 
   791   000FE7                     INDF1           equ	4071	;# 
   792   000FE8                     WREG            equ	4072	;# 
   793   000FE9                     FSR0            equ	4073	;# 
   794   000FE9                     FSR0L           equ	4073	;# 
   795   000FEA                     FSR0H           equ	4074	;# 
   796   000FEB                     PLUSW0          equ	4075	;# 
   797   000FEC                     PREINC0         equ	4076	;# 
   798   000FED                     POSTDEC0        equ	4077	;# 
   799   000FEE                     POSTINC0        equ	4078	;# 
   800   000FEF                     INDF0           equ	4079	;# 
   801   000FF0                     INTCON3         equ	4080	;# 
   802   000FF1                     INTCON2         equ	4081	;# 
   803   000FF2                     INTCON          equ	4082	;# 
   804   000FF3                     PROD            equ	4083	;# 
   805   000FF3                     PRODL           equ	4083	;# 
   806   000FF4                     PRODH           equ	4084	;# 
   807   000FF5                     TABLAT          equ	4085	;# 
   808   000FF6                     TBLPTR          equ	4086	;# 
   809   000FF6                     TBLPTRL         equ	4086	;# 
   810   000FF7                     TBLPTRH         equ	4087	;# 
   811   000FF8                     TBLPTRU         equ	4088	;# 
   812   000FF9                     PCLAT           equ	4089	;# 
   813   000FF9                     PC              equ	4089	;# 
   814   000FF9                     PCL             equ	4089	;# 
   815   000FFA                     PCLATH          equ	4090	;# 
   816   000FFB                     PCLATU          equ	4091	;# 
   817   000FFC                     STKPTR          equ	4092	;# 
   818   000FFD                     TOS             equ	4093	;# 
   819   000FFD                     TOSL            equ	4093	;# 
   820   000FFE                     TOSH            equ	4094	;# 
   821   000FFF                     TOSU            equ	4095	;# 
   822   000F80                     PORTA           equ	3968	;# 
   823   000F81                     PORTB           equ	3969	;# 
   824   000F82                     PORTC           equ	3970	;# 
   825   000F83                     PORTD           equ	3971	;# 
   826   000F84                     PORTE           equ	3972	;# 
   827   000F89                     LATA            equ	3977	;# 
   828   000F8A                     LATB            equ	3978	;# 
   829   000F8B                     LATC            equ	3979	;# 
   830   000F8C                     LATD            equ	3980	;# 
   831   000F8D                     LATE            equ	3981	;# 
   832   000F92                     TRISA           equ	3986	;# 
   833   000F92                     DDRA            equ	3986	;# 
   834   000F93                     TRISB           equ	3987	;# 
   835   000F93                     DDRB            equ	3987	;# 
   836   000F94                     TRISC           equ	3988	;# 
   837   000F94                     DDRC            equ	3988	;# 
   838   000F95                     TRISD           equ	3989	;# 
   839   000F95                     DDRD            equ	3989	;# 
   840   000F96                     TRISE           equ	3990	;# 
   841   000F96                     DDRE            equ	3990	;# 
   842   000F9B                     OSCTUNE         equ	3995	;# 
   843   000F9D                     PIE1            equ	3997	;# 
   844   000F9E                     PIR1            equ	3998	;# 
   845   000F9F                     IPR1            equ	3999	;# 
   846   000FA0                     PIE2            equ	4000	;# 
   847   000FA1                     PIR2            equ	4001	;# 
   848   000FA2                     IPR2            equ	4002	;# 
   849   000FA6                     EECON1          equ	4006	;# 
   850   000FA7                     EECON2          equ	4007	;# 
   851   000FA8                     EEDATA          equ	4008	;# 
   852   000FA9                     EEADR           equ	4009	;# 
   853   000FAB                     RCSTA           equ	4011	;# 
   854   000FAB                     RCSTA1          equ	4011	;# 
   855   000FAC                     TXSTA           equ	4012	;# 
   856   000FAC                     TXSTA1          equ	4012	;# 
   857   000FAD                     TXREG           equ	4013	;# 
   858   000FAD                     TXREG1          equ	4013	;# 
   859   000FAE                     RCREG           equ	4014	;# 
   860   000FAE                     RCREG1          equ	4014	;# 
   861   000FAF                     SPBRG           equ	4015	;# 
   862   000FAF                     SPBRG1          equ	4015	;# 
   863   000FB0                     SPBRGH          equ	4016	;# 
   864   000FB1                     T3CON           equ	4017	;# 
   865   000FB2                     TMR3            equ	4018	;# 
   866   000FB2                     TMR3L           equ	4018	;# 
   867   000FB3                     TMR3H           equ	4019	;# 
   868   000FB4                     CMCON           equ	4020	;# 
   869   000FB5                     CVRCON          equ	4021	;# 
   870   000FB6                     ECCP1AS         equ	4022	;# 
   871   000FB7                     ECCP1DEL        equ	4023	;# 
   872   000FB7                     PWM1CON         equ	4023	;# 
   873   000FB8                     BAUDCON         equ	4024	;# 
   874   000FB8                     BAUDCTL         equ	4024	;# 
   875   000FBA                     CCP2CON         equ	4026	;# 
   876   000FBB                     CCPR2           equ	4027	;# 
   877   000FBB                     CCPR2L          equ	4027	;# 
   878   000FBC                     CCPR2H          equ	4028	;# 
   879   000FBD                     CCP1CON         equ	4029	;# 
   880   000FBD                     ECCP1CON        equ	4029	;# 
   881   000FBE                     CCPR1           equ	4030	;# 
   882   000FBE                     CCPR1L          equ	4030	;# 
   883   000FBF                     CCPR1H          equ	4031	;# 
   884   000FC0                     ADCON2          equ	4032	;# 
   885   000FC1                     ADCON1          equ	4033	;# 
   886   000FC2                     ADCON0          equ	4034	;# 
   887   000FC3                     ADRES           equ	4035	;# 
   888   000FC3                     ADRESL          equ	4035	;# 
   889   000FC4                     ADRESH          equ	4036	;# 
   890   000FC5                     SSPCON2         equ	4037	;# 
   891   000FC6                     SSPCON1         equ	4038	;# 
   892   000FC7                     SSPSTAT         equ	4039	;# 
   893   000FC8                     SSPADD          equ	4040	;# 
   894   000FC9                     SSPBUF          equ	4041	;# 
   895   000FCA                     T2CON           equ	4042	;# 
   896   000FCB                     PR2             equ	4043	;# 
   897   000FCB                     MEMCON          equ	4043	;# 
   898   000FCC                     TMR2            equ	4044	;# 
   899   000FCD                     T1CON           equ	4045	;# 
   900   000FCE                     TMR1            equ	4046	;# 
   901   000FCE                     TMR1L           equ	4046	;# 
   902   000FCF                     TMR1H           equ	4047	;# 
   903   000FD0                     RCON            equ	4048	;# 
   904   000FD1                     WDTCON          equ	4049	;# 
   905   000FD2                     HLVDCON         equ	4050	;# 
   906   000FD2                     LVDCON          equ	4050	;# 
   907   000FD3                     OSCCON          equ	4051	;# 
   908   000FD5                     T0CON           equ	4053	;# 
   909   000FD6                     TMR0            equ	4054	;# 
   910   000FD6                     TMR0L           equ	4054	;# 
   911   000FD7                     TMR0H           equ	4055	;# 
   912   000FD8                     STATUS          equ	4056	;# 
   913   000FD9                     FSR2            equ	4057	;# 
   914   000FD9                     FSR2L           equ	4057	;# 
   915   000FDA                     FSR2H           equ	4058	;# 
   916   000FDB                     PLUSW2          equ	4059	;# 
   917   000FDC                     PREINC2         equ	4060	;# 
   918   000FDD                     POSTDEC2        equ	4061	;# 
   919   000FDE                     POSTINC2        equ	4062	;# 
   920   000FDF                     INDF2           equ	4063	;# 
   921   000FE0                     BSR             equ	4064	;# 
   922   000FE1                     FSR1            equ	4065	;# 
   923   000FE1                     FSR1L           equ	4065	;# 
   924   000FE2                     FSR1H           equ	4066	;# 
   925   000FE3                     PLUSW1          equ	4067	;# 
   926   000FE4                     PREINC1         equ	4068	;# 
   927   000FE5                     POSTDEC1        equ	4069	;# 
   928   000FE6                     POSTINC1        equ	4070	;# 
   929   000FE7                     INDF1           equ	4071	;# 
   930   000FE8                     WREG            equ	4072	;# 
   931   000FE9                     FSR0            equ	4073	;# 
   932   000FE9                     FSR0L           equ	4073	;# 
   933   000FEA                     FSR0H           equ	4074	;# 
   934   000FEB                     PLUSW0          equ	4075	;# 
   935   000FEC                     PREINC0         equ	4076	;# 
   936   000FED                     POSTDEC0        equ	4077	;# 
   937   000FEE                     POSTINC0        equ	4078	;# 
   938   000FEF                     INDF0           equ	4079	;# 
   939   000FF0                     INTCON3         equ	4080	;# 
   940   000FF1                     INTCON2         equ	4081	;# 
   941   000FF2                     INTCON          equ	4082	;# 
   942   000FF3                     PROD            equ	4083	;# 
   943   000FF3                     PRODL           equ	4083	;# 
   944   000FF4                     PRODH           equ	4084	;# 
   945   000FF5                     TABLAT          equ	4085	;# 
   946   000FF6                     TBLPTR          equ	4086	;# 
   947   000FF6                     TBLPTRL         equ	4086	;# 
   948   000FF7                     TBLPTRH         equ	4087	;# 
   949   000FF8                     TBLPTRU         equ	4088	;# 
   950   000FF9                     PCLAT           equ	4089	;# 
   951   000FF9                     PC              equ	4089	;# 
   952   000FF9                     PCL             equ	4089	;# 
   953   000FFA                     PCLATH          equ	4090	;# 
   954   000FFB                     PCLATU          equ	4091	;# 
   955   000FFC                     STKPTR          equ	4092	;# 
   956   000FFD                     TOS             equ	4093	;# 
   957   000FFD                     TOSL            equ	4093	;# 
   958   000FFE                     TOSH            equ	4094	;# 
   959   000FFF                     TOSU            equ	4095	;# 
   960   000F80                     PORTA           equ	3968	;# 
   961   000F81                     PORTB           equ	3969	;# 
   962   000F82                     PORTC           equ	3970	;# 
   963   000F83                     PORTD           equ	3971	;# 
   964   000F84                     PORTE           equ	3972	;# 
   965   000F89                     LATA            equ	3977	;# 
   966   000F8A                     LATB            equ	3978	;# 
   967   000F8B                     LATC            equ	3979	;# 
   968   000F8C                     LATD            equ	3980	;# 
   969   000F8D                     LATE            equ	3981	;# 
   970   000F92                     TRISA           equ	3986	;# 
   971   000F92                     DDRA            equ	3986	;# 
   972   000F93                     TRISB           equ	3987	;# 
   973   000F93                     DDRB            equ	3987	;# 
   974   000F94                     TRISC           equ	3988	;# 
   975   000F94                     DDRC            equ	3988	;# 
   976   000F95                     TRISD           equ	3989	;# 
   977   000F95                     DDRD            equ	3989	;# 
   978   000F96                     TRISE           equ	3990	;# 
   979   000F96                     DDRE            equ	3990	;# 
   980   000F9B                     OSCTUNE         equ	3995	;# 
   981   000F9D                     PIE1            equ	3997	;# 
   982   000F9E                     PIR1            equ	3998	;# 
   983   000F9F                     IPR1            equ	3999	;# 
   984   000FA0                     PIE2            equ	4000	;# 
   985   000FA1                     PIR2            equ	4001	;# 
   986   000FA2                     IPR2            equ	4002	;# 
   987   000FA6                     EECON1          equ	4006	;# 
   988   000FA7                     EECON2          equ	4007	;# 
   989   000FA8                     EEDATA          equ	4008	;# 
   990   000FA9                     EEADR           equ	4009	;# 
   991   000FAB                     RCSTA           equ	4011	;# 
   992   000FAB                     RCSTA1          equ	4011	;# 
   993   000FAC                     TXSTA           equ	4012	;# 
   994   000FAC                     TXSTA1          equ	4012	;# 
   995   000FAD                     TXREG           equ	4013	;# 
   996   000FAD                     TXREG1          equ	4013	;# 
   997   000FAE                     RCREG           equ	4014	;# 
   998   000FAE                     RCREG1          equ	4014	;# 
   999   000FAF                     SPBRG           equ	4015	;# 
  1000   000FAF                     SPBRG1          equ	4015	;# 
  1001   000FB0                     SPBRGH          equ	4016	;# 
  1002   000FB1                     T3CON           equ	4017	;# 
  1003   000FB2                     TMR3            equ	4018	;# 
  1004   000FB2                     TMR3L           equ	4018	;# 
  1005   000FB3                     TMR3H           equ	4019	;# 
  1006   000FB4                     CMCON           equ	4020	;# 
  1007   000FB5                     CVRCON          equ	4021	;# 
  1008   000FB6                     ECCP1AS         equ	4022	;# 
  1009   000FB7                     ECCP1DEL        equ	4023	;# 
  1010   000FB7                     PWM1CON         equ	4023	;# 
  1011   000FB8                     BAUDCON         equ	4024	;# 
  1012   000FB8                     BAUDCTL         equ	4024	;# 
  1013   000FBA                     CCP2CON         equ	4026	;# 
  1014   000FBB                     CCPR2           equ	4027	;# 
  1015   000FBB                     CCPR2L          equ	4027	;# 
  1016   000FBC                     CCPR2H          equ	4028	;# 
  1017   000FBD                     CCP1CON         equ	4029	;# 
  1018   000FBD                     ECCP1CON        equ	4029	;# 
  1019   000FBE                     CCPR1           equ	4030	;# 
  1020   000FBE                     CCPR1L          equ	4030	;# 
  1021   000FBF                     CCPR1H          equ	4031	;# 
  1022   000FC0                     ADCON2          equ	4032	;# 
  1023   000FC1                     ADCON1          equ	4033	;# 
  1024   000FC2                     ADCON0          equ	4034	;# 
  1025   000FC3                     ADRES           equ	4035	;# 
  1026   000FC3                     ADRESL          equ	4035	;# 
  1027   000FC4                     ADRESH          equ	4036	;# 
  1028   000FC5                     SSPCON2         equ	4037	;# 
  1029   000FC6                     SSPCON1         equ	4038	;# 
  1030   000FC7                     SSPSTAT         equ	4039	;# 
  1031   000FC8                     SSPADD          equ	4040	;# 
  1032   000FC9                     SSPBUF          equ	4041	;# 
  1033   000FCA                     T2CON           equ	4042	;# 
  1034   000FCB                     PR2             equ	4043	;# 
  1035   000FCB                     MEMCON          equ	4043	;# 
  1036   000FCC                     TMR2            equ	4044	;# 
  1037   000FCD                     T1CON           equ	4045	;# 
  1038   000FCE                     TMR1            equ	4046	;# 
  1039   000FCE                     TMR1L           equ	4046	;# 
  1040   000FCF                     TMR1H           equ	4047	;# 
  1041   000FD0                     RCON            equ	4048	;# 
  1042   000FD1                     WDTCON          equ	4049	;# 
  1043   000FD2                     HLVDCON         equ	4050	;# 
  1044   000FD2                     LVDCON          equ	4050	;# 
  1045   000FD3                     OSCCON          equ	4051	;# 
  1046   000FD5                     T0CON           equ	4053	;# 
  1047   000FD6                     TMR0            equ	4054	;# 
  1048   000FD6                     TMR0L           equ	4054	;# 
  1049   000FD7                     TMR0H           equ	4055	;# 
  1050   000FD8                     STATUS          equ	4056	;# 
  1051   000FD9                     FSR2            equ	4057	;# 
  1052   000FD9                     FSR2L           equ	4057	;# 
  1053   000FDA                     FSR2H           equ	4058	;# 
  1054   000FDB                     PLUSW2          equ	4059	;# 
  1055   000FDC                     PREINC2         equ	4060	;# 
  1056   000FDD                     POSTDEC2        equ	4061	;# 
  1057   000FDE                     POSTINC2        equ	4062	;# 
  1058   000FDF                     INDF2           equ	4063	;# 
  1059   000FE0                     BSR             equ	4064	;# 
  1060   000FE1                     FSR1            equ	4065	;# 
  1061   000FE1                     FSR1L           equ	4065	;# 
  1062   000FE2                     FSR1H           equ	4066	;# 
  1063   000FE3                     PLUSW1          equ	4067	;# 
  1064   000FE4                     PREINC1         equ	4068	;# 
  1065   000FE5                     POSTDEC1        equ	4069	;# 
  1066   000FE6                     POSTINC1        equ	4070	;# 
  1067   000FE7                     INDF1           equ	4071	;# 
  1068   000FE8                     WREG            equ	4072	;# 
  1069   000FE9                     FSR0            equ	4073	;# 
  1070   000FE9                     FSR0L           equ	4073	;# 
  1071   000FEA                     FSR0H           equ	4074	;# 
  1072   000FEB                     PLUSW0          equ	4075	;# 
  1073   000FEC                     PREINC0         equ	4076	;# 
  1074   000FED                     POSTDEC0        equ	4077	;# 
  1075   000FEE                     POSTINC0        equ	4078	;# 
  1076   000FEF                     INDF0           equ	4079	;# 
  1077   000FF0                     INTCON3         equ	4080	;# 
  1078   000FF1                     INTCON2         equ	4081	;# 
  1079   000FF2                     INTCON          equ	4082	;# 
  1080   000FF3                     PROD            equ	4083	;# 
  1081   000FF3                     PRODL           equ	4083	;# 
  1082   000FF4                     PRODH           equ	4084	;# 
  1083   000FF5                     TABLAT          equ	4085	;# 
  1084   000FF6                     TBLPTR          equ	4086	;# 
  1085   000FF6                     TBLPTRL         equ	4086	;# 
  1086   000FF7                     TBLPTRH         equ	4087	;# 
  1087   000FF8                     TBLPTRU         equ	4088	;# 
  1088   000FF9                     PCLAT           equ	4089	;# 
  1089   000FF9                     PC              equ	4089	;# 
  1090   000FF9                     PCL             equ	4089	;# 
  1091   000FFA                     PCLATH          equ	4090	;# 
  1092   000FFB                     PCLATU          equ	4091	;# 
  1093   000FFC                     STKPTR          equ	4092	;# 
  1094   000FFD                     TOS             equ	4093	;# 
  1095   000FFD                     TOSL            equ	4093	;# 
  1096   000FFE                     TOSH            equ	4094	;# 
  1097   000FFF                     TOSU            equ	4095	;# 
  1098   000F80                     PORTA           equ	3968	;# 
  1099   000F81                     PORTB           equ	3969	;# 
  1100   000F82                     PORTC           equ	3970	;# 
  1101   000F83                     PORTD           equ	3971	;# 
  1102   000F84                     PORTE           equ	3972	;# 
  1103   000F89                     LATA            equ	3977	;# 
  1104   000F8A                     LATB            equ	3978	;# 
  1105   000F8B                     LATC            equ	3979	;# 
  1106   000F8C                     LATD            equ	3980	;# 
  1107   000F8D                     LATE            equ	3981	;# 
  1108   000F92                     TRISA           equ	3986	;# 
  1109   000F92                     DDRA            equ	3986	;# 
  1110   000F93                     TRISB           equ	3987	;# 
  1111   000F93                     DDRB            equ	3987	;# 
  1112   000F94                     TRISC           equ	3988	;# 
  1113   000F94                     DDRC            equ	3988	;# 
  1114   000F95                     TRISD           equ	3989	;# 
  1115   000F95                     DDRD            equ	3989	;# 
  1116   000F96                     TRISE           equ	3990	;# 
  1117   000F96                     DDRE            equ	3990	;# 
  1118   000F9B                     OSCTUNE         equ	3995	;# 
  1119   000F9D                     PIE1            equ	3997	;# 
  1120   000F9E                     PIR1            equ	3998	;# 
  1121   000F9F                     IPR1            equ	3999	;# 
  1122   000FA0                     PIE2            equ	4000	;# 
  1123   000FA1                     PIR2            equ	4001	;# 
  1124   000FA2                     IPR2            equ	4002	;# 
  1125   000FA6                     EECON1          equ	4006	;# 
  1126   000FA7                     EECON2          equ	4007	;# 
  1127   000FA8                     EEDATA          equ	4008	;# 
  1128   000FA9                     EEADR           equ	4009	;# 
  1129   000FAB                     RCSTA           equ	4011	;# 
  1130   000FAB                     RCSTA1          equ	4011	;# 
  1131   000FAC                     TXSTA           equ	4012	;# 
  1132   000FAC                     TXSTA1          equ	4012	;# 
  1133   000FAD                     TXREG           equ	4013	;# 
  1134   000FAD                     TXREG1          equ	4013	;# 
  1135   000FAE                     RCREG           equ	4014	;# 
  1136   000FAE                     RCREG1          equ	4014	;# 
  1137   000FAF                     SPBRG           equ	4015	;# 
  1138   000FAF                     SPBRG1          equ	4015	;# 
  1139   000FB0                     SPBRGH          equ	4016	;# 
  1140   000FB1                     T3CON           equ	4017	;# 
  1141   000FB2                     TMR3            equ	4018	;# 
  1142   000FB2                     TMR3L           equ	4018	;# 
  1143   000FB3                     TMR3H           equ	4019	;# 
  1144   000FB4                     CMCON           equ	4020	;# 
  1145   000FB5                     CVRCON          equ	4021	;# 
  1146   000FB6                     ECCP1AS         equ	4022	;# 
  1147   000FB7                     ECCP1DEL        equ	4023	;# 
  1148   000FB7                     PWM1CON         equ	4023	;# 
  1149   000FB8                     BAUDCON         equ	4024	;# 
  1150   000FB8                     BAUDCTL         equ	4024	;# 
  1151   000FBA                     CCP2CON         equ	4026	;# 
  1152   000FBB                     CCPR2           equ	4027	;# 
  1153   000FBB                     CCPR2L          equ	4027	;# 
  1154   000FBC                     CCPR2H          equ	4028	;# 
  1155   000FBD                     CCP1CON         equ	4029	;# 
  1156   000FBD                     ECCP1CON        equ	4029	;# 
  1157   000FBE                     CCPR1           equ	4030	;# 
  1158   000FBE                     CCPR1L          equ	4030	;# 
  1159   000FBF                     CCPR1H          equ	4031	;# 
  1160   000FC0                     ADCON2          equ	4032	;# 
  1161   000FC1                     ADCON1          equ	4033	;# 
  1162   000FC2                     ADCON0          equ	4034	;# 
  1163   000FC3                     ADRES           equ	4035	;# 
  1164   000FC3                     ADRESL          equ	4035	;# 
  1165   000FC4                     ADRESH          equ	4036	;# 
  1166   000FC5                     SSPCON2         equ	4037	;# 
  1167   000FC6                     SSPCON1         equ	4038	;# 
  1168   000FC7                     SSPSTAT         equ	4039	;# 
  1169   000FC8                     SSPADD          equ	4040	;# 
  1170   000FC9                     SSPBUF          equ	4041	;# 
  1171   000FCA                     T2CON           equ	4042	;# 
  1172   000FCB                     PR2             equ	4043	;# 
  1173   000FCB                     MEMCON          equ	4043	;# 
  1174   000FCC                     TMR2            equ	4044	;# 
  1175   000FCD                     T1CON           equ	4045	;# 
  1176   000FCE                     TMR1            equ	4046	;# 
  1177   000FCE                     TMR1L           equ	4046	;# 
  1178   000FCF                     TMR1H           equ	4047	;# 
  1179   000FD0                     RCON            equ	4048	;# 
  1180   000FD1                     WDTCON          equ	4049	;# 
  1181   000FD2                     HLVDCON         equ	4050	;# 
  1182   000FD2                     LVDCON          equ	4050	;# 
  1183   000FD3                     OSCCON          equ	4051	;# 
  1184   000FD5                     T0CON           equ	4053	;# 
  1185   000FD6                     TMR0            equ	4054	;# 
  1186   000FD6                     TMR0L           equ	4054	;# 
  1187   000FD7                     TMR0H           equ	4055	;# 
  1188   000FD8                     STATUS          equ	4056	;# 
  1189   000FD9                     FSR2            equ	4057	;# 
  1190   000FD9                     FSR2L           equ	4057	;# 
  1191   000FDA                     FSR2H           equ	4058	;# 
  1192   000FDB                     PLUSW2          equ	4059	;# 
  1193   000FDC                     PREINC2         equ	4060	;# 
  1194   000FDD                     POSTDEC2        equ	4061	;# 
  1195   000FDE                     POSTINC2        equ	4062	;# 
  1196   000FDF                     INDF2           equ	4063	;# 
  1197   000FE0                     BSR             equ	4064	;# 
  1198   000FE1                     FSR1            equ	4065	;# 
  1199   000FE1                     FSR1L           equ	4065	;# 
  1200   000FE2                     FSR1H           equ	4066	;# 
  1201   000FE3                     PLUSW1          equ	4067	;# 
  1202   000FE4                     PREINC1         equ	4068	;# 
  1203   000FE5                     POSTDEC1        equ	4069	;# 
  1204   000FE6                     POSTINC1        equ	4070	;# 
  1205   000FE7                     INDF1           equ	4071	;# 
  1206   000FE8                     WREG            equ	4072	;# 
  1207   000FE9                     FSR0            equ	4073	;# 
  1208   000FE9                     FSR0L           equ	4073	;# 
  1209   000FEA                     FSR0H           equ	4074	;# 
  1210   000FEB                     PLUSW0          equ	4075	;# 
  1211   000FEC                     PREINC0         equ	4076	;# 
  1212   000FED                     POSTDEC0        equ	4077	;# 
  1213   000FEE                     POSTINC0        equ	4078	;# 
  1214   000FEF                     INDF0           equ	4079	;# 
  1215   000FF0                     INTCON3         equ	4080	;# 
  1216   000FF1                     INTCON2         equ	4081	;# 
  1217   000FF2                     INTCON          equ	4082	;# 
  1218   000FF3                     PROD            equ	4083	;# 
  1219   000FF3                     PRODL           equ	4083	;# 
  1220   000FF4                     PRODH           equ	4084	;# 
  1221   000FF5                     TABLAT          equ	4085	;# 
  1222   000FF6                     TBLPTR          equ	4086	;# 
  1223   000FF6                     TBLPTRL         equ	4086	;# 
  1224   000FF7                     TBLPTRH         equ	4087	;# 
  1225   000FF8                     TBLPTRU         equ	4088	;# 
  1226   000FF9                     PCLAT           equ	4089	;# 
  1227   000FF9                     PC              equ	4089	;# 
  1228   000FF9                     PCL             equ	4089	;# 
  1229   000FFA                     PCLATH          equ	4090	;# 
  1230   000FFB                     PCLATU          equ	4091	;# 
  1231   000FFC                     STKPTR          equ	4092	;# 
  1232   000FFD                     TOS             equ	4093	;# 
  1233   000FFD                     TOSL            equ	4093	;# 
  1234   000FFE                     TOSH            equ	4094	;# 
  1235   000FFF                     TOSU            equ	4095	;# 
  1236   000F80                     PORTA           equ	3968	;# 
  1237   000F81                     PORTB           equ	3969	;# 
  1238   000F82                     PORTC           equ	3970	;# 
  1239   000F83                     PORTD           equ	3971	;# 
  1240   000F84                     PORTE           equ	3972	;# 
  1241   000F89                     LATA            equ	3977	;# 
  1242   000F8A                     LATB            equ	3978	;# 
  1243   000F8B                     LATC            equ	3979	;# 
  1244   000F8C                     LATD            equ	3980	;# 
  1245   000F8D                     LATE            equ	3981	;# 
  1246   000F92                     TRISA           equ	3986	;# 
  1247   000F92                     DDRA            equ	3986	;# 
  1248   000F93                     TRISB           equ	3987	;# 
  1249   000F93                     DDRB            equ	3987	;# 
  1250   000F94                     TRISC           equ	3988	;# 
  1251   000F94                     DDRC            equ	3988	;# 
  1252   000F95                     TRISD           equ	3989	;# 
  1253   000F95                     DDRD            equ	3989	;# 
  1254   000F96                     TRISE           equ	3990	;# 
  1255   000F96                     DDRE            equ	3990	;# 
  1256   000F9B                     OSCTUNE         equ	3995	;# 
  1257   000F9D                     PIE1            equ	3997	;# 
  1258   000F9E                     PIR1            equ	3998	;# 
  1259   000F9F                     IPR1            equ	3999	;# 
  1260   000FA0                     PIE2            equ	4000	;# 
  1261   000FA1                     PIR2            equ	4001	;# 
  1262   000FA2                     IPR2            equ	4002	;# 
  1263   000FA6                     EECON1          equ	4006	;# 
  1264   000FA7                     EECON2          equ	4007	;# 
  1265   000FA8                     EEDATA          equ	4008	;# 
  1266   000FA9                     EEADR           equ	4009	;# 
  1267   000FAB                     RCSTA           equ	4011	;# 
  1268   000FAB                     RCSTA1          equ	4011	;# 
  1269   000FAC                     TXSTA           equ	4012	;# 
  1270   000FAC                     TXSTA1          equ	4012	;# 
  1271   000FAD                     TXREG           equ	4013	;# 
  1272   000FAD                     TXREG1          equ	4013	;# 
  1273   000FAE                     RCREG           equ	4014	;# 
  1274   000FAE                     RCREG1          equ	4014	;# 
  1275   000FAF                     SPBRG           equ	4015	;# 
  1276   000FAF                     SPBRG1          equ	4015	;# 
  1277   000FB0                     SPBRGH          equ	4016	;# 
  1278   000FB1                     T3CON           equ	4017	;# 
  1279   000FB2                     TMR3            equ	4018	;# 
  1280   000FB2                     TMR3L           equ	4018	;# 
  1281   000FB3                     TMR3H           equ	4019	;# 
  1282   000FB4                     CMCON           equ	4020	;# 
  1283   000FB5                     CVRCON          equ	4021	;# 
  1284   000FB6                     ECCP1AS         equ	4022	;# 
  1285   000FB7                     ECCP1DEL        equ	4023	;# 
  1286   000FB7                     PWM1CON         equ	4023	;# 
  1287   000FB8                     BAUDCON         equ	4024	;# 
  1288   000FB8                     BAUDCTL         equ	4024	;# 
  1289   000FBA                     CCP2CON         equ	4026	;# 
  1290   000FBB                     CCPR2           equ	4027	;# 
  1291   000FBB                     CCPR2L          equ	4027	;# 
  1292   000FBC                     CCPR2H          equ	4028	;# 
  1293   000FBD                     CCP1CON         equ	4029	;# 
  1294   000FBD                     ECCP1CON        equ	4029	;# 
  1295   000FBE                     CCPR1           equ	4030	;# 
  1296   000FBE                     CCPR1L          equ	4030	;# 
  1297   000FBF                     CCPR1H          equ	4031	;# 
  1298   000FC0                     ADCON2          equ	4032	;# 
  1299   000FC1                     ADCON1          equ	4033	;# 
  1300   000FC2                     ADCON0          equ	4034	;# 
  1301   000FC3                     ADRES           equ	4035	;# 
  1302   000FC3                     ADRESL          equ	4035	;# 
  1303   000FC4                     ADRESH          equ	4036	;# 
  1304   000FC5                     SSPCON2         equ	4037	;# 
  1305   000FC6                     SSPCON1         equ	4038	;# 
  1306   000FC7                     SSPSTAT         equ	4039	;# 
  1307   000FC8                     SSPADD          equ	4040	;# 
  1308   000FC9                     SSPBUF          equ	4041	;# 
  1309   000FCA                     T2CON           equ	4042	;# 
  1310   000FCB                     PR2             equ	4043	;# 
  1311   000FCB                     MEMCON          equ	4043	;# 
  1312   000FCC                     TMR2            equ	4044	;# 
  1313   000FCD                     T1CON           equ	4045	;# 
  1314   000FCE                     TMR1            equ	4046	;# 
  1315   000FCE                     TMR1L           equ	4046	;# 
  1316   000FCF                     TMR1H           equ	4047	;# 
  1317   000FD0                     RCON            equ	4048	;# 
  1318   000FD1                     WDTCON          equ	4049	;# 
  1319   000FD2                     HLVDCON         equ	4050	;# 
  1320   000FD2                     LVDCON          equ	4050	;# 
  1321   000FD3                     OSCCON          equ	4051	;# 
  1322   000FD5                     T0CON           equ	4053	;# 
  1323   000FD6                     TMR0            equ	4054	;# 
  1324   000FD6                     TMR0L           equ	4054	;# 
  1325   000FD7                     TMR0H           equ	4055	;# 
  1326   000FD8                     STATUS          equ	4056	;# 
  1327   000FD9                     FSR2            equ	4057	;# 
  1328   000FD9                     FSR2L           equ	4057	;# 
  1329   000FDA                     FSR2H           equ	4058	;# 
  1330   000FDB                     PLUSW2          equ	4059	;# 
  1331   000FDC                     PREINC2         equ	4060	;# 
  1332   000FDD                     POSTDEC2        equ	4061	;# 
  1333   000FDE                     POSTINC2        equ	4062	;# 
  1334   000FDF                     INDF2           equ	4063	;# 
  1335   000FE0                     BSR             equ	4064	;# 
  1336   000FE1                     FSR1            equ	4065	;# 
  1337   000FE1                     FSR1L           equ	4065	;# 
  1338   000FE2                     FSR1H           equ	4066	;# 
  1339   000FE3                     PLUSW1          equ	4067	;# 
  1340   000FE4                     PREINC1         equ	4068	;# 
  1341   000FE5                     POSTDEC1        equ	4069	;# 
  1342   000FE6                     POSTINC1        equ	4070	;# 
  1343   000FE7                     INDF1           equ	4071	;# 
  1344   000FE8                     WREG            equ	4072	;# 
  1345   000FE9                     FSR0            equ	4073	;# 
  1346   000FE9                     FSR0L           equ	4073	;# 
  1347   000FEA                     FSR0H           equ	4074	;# 
  1348   000FEB                     PLUSW0          equ	4075	;# 
  1349   000FEC                     PREINC0         equ	4076	;# 
  1350   000FED                     POSTDEC0        equ	4077	;# 
  1351   000FEE                     POSTINC0        equ	4078	;# 
  1352   000FEF                     INDF0           equ	4079	;# 
  1353   000FF0                     INTCON3         equ	4080	;# 
  1354   000FF1                     INTCON2         equ	4081	;# 
  1355   000FF2                     INTCON          equ	4082	;# 
  1356   000FF3                     PROD            equ	4083	;# 
  1357   000FF3                     PRODL           equ	4083	;# 
  1358   000FF4                     PRODH           equ	4084	;# 
  1359   000FF5                     TABLAT          equ	4085	;# 
  1360   000FF6                     TBLPTR          equ	4086	;# 
  1361   000FF6                     TBLPTRL         equ	4086	;# 
  1362   000FF7                     TBLPTRH         equ	4087	;# 
  1363   000FF8                     TBLPTRU         equ	4088	;# 
  1364   000FF9                     PCLAT           equ	4089	;# 
  1365   000FF9                     PC              equ	4089	;# 
  1366   000FF9                     PCL             equ	4089	;# 
  1367   000FFA                     PCLATH          equ	4090	;# 
  1368   000FFB                     PCLATU          equ	4091	;# 
  1369   000FFC                     STKPTR          equ	4092	;# 
  1370   000FFD                     TOS             equ	4093	;# 
  1371   000FFD                     TOSL            equ	4093	;# 
  1372   000FFE                     TOSH            equ	4094	;# 
  1373   000FFF                     TOSU            equ	4095	;# 
  1374                           
  1375                           	psect	idataCOMRAM
  1376   0016A8                     __pidataCOMRAM:
  1377                           	callstack 0
  1378                           
  1379                           ;initializer for _psswrd
  1380   0016A8  30                 	db	48
  1381   0016A9  33                 	db	51
  1382   0016AA  30                 	db	48
  1383   0016AB  38                 	db	56
  1384   0016AC  59                 	db	89
  1385   0016AD  41                 	db	65
  1386   0016AE  4E                 	db	78
  1387   0016AF  00                 	db	0
  1388                           
  1389                           ;initializer for _yes_aux
  1390   0016B0  59                 	db	89
  1391   0016B1  65                 	db	101
  1392   0016B2  73                 	db	115
  1393   0016B3  00                 	db	0
  1394                           
  1395                           ;initializer for _password
  1396   0016B4  44                 	db	68
  1397   0016B5  44                 	db	68
  1398   0016B6  4D                 	db	77
  1399   0016B7  4D                 	db	77
  1400   0016B8  2D                 	db	45
  1401   0016B9  2D                 	db	45
  1402   0016BA  2D                 	db	45
  1403   0016BB  00                 	db	0
  1404                           
  1405                           	psect	mediumconst
  1406   001E54                     __pmediumconst:
  1407                           	callstack 0
  1408   001E54  00                 	db	0
  1409   001E55                     _teclas:
  1410                           	callstack 0
  1411   001E55  FC                 	db	low STR_1
  1412   001E56  1F                 	db	high STR_1
  1413   001E57  E1                 	db	low STR_2
  1414   001E58  1F                 	db	high STR_2
  1415   001E59  CB                 	db	low STR_3
  1416   001E5A  1F                 	db	high STR_3
  1417   001E5B  FA                 	db	low STR_4
  1418   001E5C  1F                 	db	high STR_4
  1419   001E5D  D7                 	db	low STR_5
  1420   001E5E  1F                 	db	high STR_5
  1421   001E5F  E6                 	db	low STR_6
  1422   001E60  1F                 	db	high STR_6
  1423   001E61  F0                 	db	low STR_7
  1424   001E62  1F                 	db	high STR_7
  1425   001E63  F5                 	db	low STR_8
  1426   001E64  1F                 	db	high STR_8
  1427   001E65  DC                 	db	low STR_9
  1428   001E66  1F                 	db	high STR_9
  1429   001E67  EB                 	db	low STR_10
  1430   001E68  1F                 	db	high STR_10
  1431   001E69  D1                 	db	low STR_11
  1432   001E6A  1F                 	db	high STR_11
  1433   001E6B  F8                 	db	low STR_12
  1434   001E6C  1F                 	db	high STR_12
  1435   001E6D                     __end_of_teclas:
  1436                           	callstack 0
  1437   007F92                     _TMR0IF         set	32658
  1438   000FD6                     _TMR0           set	4054
  1439   000FF1                     _INTCON2bits    set	4081
  1440   000FC1                     _ADCON1         set	4033
  1441   000F8C                     _LATDbits       set	3980
  1442   000F95                     _TRISDbits      set	3989
  1443   000F81                     _PORTBbits      set	3969
  1444   000F93                     _TRISBbits      set	3987
  1445   000FAD                     _TXREG          set	4013
  1446   000FAE                     _RCREG          set	4014
  1447   000F9E                     _PIR1bits       set	3998
  1448   000FAF                     _SPBRG          set	4015
  1449   000FB0                     _SPBRGH         set	4016
  1450   000FB8                     _BAUDCONbits    set	4024
  1451   000FAB                     _RCSTAbits      set	4011
  1452   000FAC                     _TXSTAbits      set	4012
  1453   000F8B                     _LATCbits       set	3979
  1454   000F94                     _TRISCbits      set	3988
  1455   000FD5                     _T0CON          set	4053
  1456   000FF2                     _INTCONbits     set	4082
  1457   001E6D                     STR_24:
  1458   001E6D  3E                 	db	62	;'>'
  1459   001E6E  20                 	db	32
  1460   001E6F  4C                 	db	76	;'L'
  1461   001E70  53                 	db	83	;'S'
  1462   001E71  42                 	db	66	;'B'
  1463   001E72  61                 	db	97	;'a'
  1464   001E73  6E                 	db	110	;'n'
  1465   001E74  6B                 	db	107	;'k'
  1466   001E75  20                 	db	32
  1467   001E76  2D                 	db	45
  1468   001E77  20                 	db	32
  1469   001E78  43                 	db	67	;'C'
  1470   001E79  6C                 	db	108	;'l'
  1471   001E7A  6F                 	db	111	;'o'
  1472   001E7B  73                 	db	115	;'s'
  1473   001E7C  65                 	db	101	;'e'
  1474   001E7D  20                 	db	32
  1475   001E7E  69                 	db	105	;'i'
  1476   001E7F  6E                 	db	110	;'n'
  1477   001E80  74                 	db	116	;'t'
  1478   001E81  65                 	db	101	;'e'
  1479   001E82  72                 	db	114	;'r'
  1480   001E83  69                 	db	105	;'i'
  1481   001E84  6F                 	db	111	;'o'
  1482   001E85  72                 	db	114	;'r'
  1483   001E86  20                 	db	32
  1484   001E87  64                 	db	100	;'d'
  1485   001E88  6F                 	db	111	;'o'
  1486   001E89  6F                 	db	111	;'o'
  1487   001E8A  72                 	db	114	;'r'
  1488   001E8B  0D                 	db	13
  1489   001E8C  0A                 	db	10
  1490   001E8D  00                 	db	0
  1491   001E8E                     STR_15:
  1492   001E8E  3E                 	db	62	;'>'
  1493   001E8F  20                 	db	32
  1494   001E90  4C                 	db	76	;'L'
  1495   001E91  53                 	db	83	;'S'
  1496   001E92  42                 	db	66	;'B'
  1497   001E93  61                 	db	97	;'a'
  1498   001E94  6E                 	db	110	;'n'
  1499   001E95  6B                 	db	107	;'k'
  1500   001E96  20                 	db	32
  1501   001E97  2D                 	db	45
  1502   001E98  20                 	db	32
  1503   001E99  43                 	db	67	;'C'
  1504   001E9A  6C                 	db	108	;'l'
  1505   001E9B  6F                 	db	111	;'o'
  1506   001E9C  73                 	db	115	;'s'
  1507   001E9D  65                 	db	101	;'e'
  1508   001E9E  20                 	db	32
  1509   001E9F  65                 	db	101	;'e'
  1510   001EA0  78                 	db	120	;'x'
  1511   001EA1  74                 	db	116	;'t'
  1512   001EA2  65                 	db	101	;'e'
  1513   001EA3  72                 	db	114	;'r'
  1514   001EA4  69                 	db	105	;'i'
  1515   001EA5  6F                 	db	111	;'o'
  1516   001EA6  72                 	db	114	;'r'
  1517   001EA7  20                 	db	32
  1518   001EA8  64                 	db	100	;'d'
  1519   001EA9  6F                 	db	111	;'o'
  1520   001EAA  6F                 	db	111	;'o'
  1521   001EAB  72                 	db	114	;'r'
  1522   001EAC  0D                 	db	13
  1523   001EAD  0A                 	db	10
  1524   001EAE  00                 	db	0
  1525   001EAF                     STR_18:
  1526   001EAF  3E                 	db	62	;'>'
  1527   001EB0  20                 	db	32
  1528   001EB1  4C                 	db	76	;'L'
  1529   001EB2  53                 	db	83	;'S'
  1530   001EB3  42                 	db	66	;'B'
  1531   001EB4  61                 	db	97	;'a'
  1532   001EB5  6E                 	db	110	;'n'
  1533   001EB6  6B                 	db	107	;'k'
  1534   001EB7  20                 	db	32
  1535   001EB8  2D                 	db	45
  1536   001EB9  20                 	db	32
  1537   001EBA  4F                 	db	79	;'O'
  1538   001EBB  70                 	db	112	;'p'
  1539   001EBC  65                 	db	101	;'e'
  1540   001EBD  6E                 	db	110	;'n'
  1541   001EBE  20                 	db	32
  1542   001EBF  69                 	db	105	;'i'
  1543   001EC0  6E                 	db	110	;'n'
  1544   001EC1  74                 	db	116	;'t'
  1545   001EC2  65                 	db	101	;'e'
  1546   001EC3  72                 	db	114	;'r'
  1547   001EC4  69                 	db	105	;'i'
  1548   001EC5  6F                 	db	111	;'o'
  1549   001EC6  72                 	db	114	;'r'
  1550   001EC7  20                 	db	32
  1551   001EC8  64                 	db	100	;'d'
  1552   001EC9  6F                 	db	111	;'o'
  1553   001ECA  6F                 	db	111	;'o'
  1554   001ECB  72                 	db	114	;'r'
  1555   001ECC  0D                 	db	13
  1556   001ECD  0A                 	db	10
  1557   001ECE  00                 	db	0
  1558   001ECF                     STR_14:
  1559   001ECF  3E                 	db	62	;'>'
  1560   001ED0  20                 	db	32
  1561   001ED1  4C                 	db	76	;'L'
  1562   001ED2  53                 	db	83	;'S'
  1563   001ED3  42                 	db	66	;'B'
  1564   001ED4  61                 	db	97	;'a'
  1565   001ED5  6E                 	db	110	;'n'
  1566   001ED6  6B                 	db	107	;'k'
  1567   001ED7  20                 	db	32
  1568   001ED8  2D                 	db	45
  1569   001ED9  20                 	db	32
  1570   001EDA  4F                 	db	79	;'O'
  1571   001EDB  70                 	db	112	;'p'
  1572   001EDC  65                 	db	101	;'e'
  1573   001EDD  6E                 	db	110	;'n'
  1574   001EDE  20                 	db	32
  1575   001EDF  65                 	db	101	;'e'
  1576   001EE0  78                 	db	120	;'x'
  1577   001EE1  74                 	db	116	;'t'
  1578   001EE2  65                 	db	101	;'e'
  1579   001EE3  72                 	db	114	;'r'
  1580   001EE4  69                 	db	105	;'i'
  1581   001EE5  6F                 	db	111	;'o'
  1582   001EE6  72                 	db	114	;'r'
  1583   001EE7  20                 	db	32
  1584   001EE8  64                 	db	100	;'d'
  1585   001EE9  6F                 	db	111	;'o'
  1586   001EEA  6F                 	db	111	;'o'
  1587   001EEB  72                 	db	114	;'r'
  1588   001EEC  0D                 	db	13
  1589   001EED  0A                 	db	10
  1590   001EEE  00                 	db	0
  1591   001EEF                     STR_19:
  1592   001EEF  3E                 	db	62	;'>'
  1593   001EF0  20                 	db	32
  1594   001EF1  4C                 	db	76	;'L'
  1595   001EF2  53                 	db	83	;'S'
  1596   001EF3  42                 	db	66	;'B'
  1597   001EF4  61                 	db	97	;'a'
  1598   001EF5  6E                 	db	110	;'n'
  1599   001EF6  6B                 	db	107	;'k'
  1600   001EF7  20                 	db	32
  1601   001EF8  2D                 	db	45
  1602   001EF9  20                 	db	32
  1603   001EFA  50                 	db	80	;'P'
  1604   001EFB  65                 	db	101	;'e'
  1605   001EFC  72                 	db	114	;'r'
  1606   001EFD  6D                 	db	109	;'m'
  1607   001EFE  69                 	db	105	;'i'
  1608   001EFF  73                 	db	115	;'s'
  1609   001F00  73                 	db	115	;'s'
  1610   001F01  69                 	db	105	;'i'
  1611   001F02  6F                 	db	111	;'o'
  1612   001F03  6E                 	db	110	;'n'
  1613   001F04  20                 	db	32
  1614   001F05  64                 	db	100	;'d'
  1615   001F06  65                 	db	101	;'e'
  1616   001F07  6E                 	db	110	;'n'
  1617   001F08  69                 	db	105	;'i'
  1618   001F09  65                 	db	101	;'e'
  1619   001F0A  64                 	db	100	;'d'
  1620   001F0B  0D                 	db	13
  1621   001F0C  0A                 	db	10
  1622   001F0D  00                 	db	0
  1623   001F0E                     STR_17:
  1624   001F0E  3E                 	db	62	;'>'
  1625   001F0F  20                 	db	32
  1626   001F10  4C                 	db	76	;'L'
  1627   001F11  53                 	db	83	;'S'
  1628   001F12  42                 	db	66	;'B'
  1629   001F13  61                 	db	97	;'a'
  1630   001F14  6E                 	db	110	;'n'
  1631   001F15  6B                 	db	107	;'k'
  1632   001F16  20                 	db	32
  1633   001F17  2D                 	db	45
  1634   001F18  20                 	db	32
  1635   001F19  54                 	db	84	;'T'
  1636   001F1A  68                 	db	104	;'h'
  1637   001F1B  69                 	db	105	;'i'
  1638   001F1C  65                 	db	101	;'e'
  1639   001F1D  66                 	db	102	;'f'
  1640   001F1E  20                 	db	32
  1641   001F1F  69                 	db	105	;'i'
  1642   001F20  6E                 	db	110	;'n'
  1643   001F21  74                 	db	116	;'t'
  1644   001F22  65                 	db	101	;'e'
  1645   001F23  72                 	db	114	;'r'
  1646   001F24  63                 	db	99	;'c'
  1647   001F25  65                 	db	101	;'e'
  1648   001F26  70                 	db	112	;'p'
  1649   001F27  74                 	db	116	;'t'
  1650   001F28  65                 	db	101	;'e'
  1651   001F29  64                 	db	100	;'d'
  1652   001F2A  0D                 	db	13
  1653   001F2B  0A                 	db	10
  1654   001F2C  00                 	db	0
  1655   001F2D                     STR_29:
  1656   001F2D  3E                 	db	62	;'>'
  1657   001F2E  20                 	db	32
  1658   001F2F  4C                 	db	76	;'L'
  1659   001F30  53                 	db	83	;'S'
  1660   001F31  42                 	db	66	;'B'
  1661   001F32  61                 	db	97	;'a'
  1662   001F33  6E                 	db	110	;'n'
  1663   001F34  6B                 	db	107	;'k'
  1664   001F35  20                 	db	32
  1665   001F36  2D                 	db	45
  1666   001F37  20                 	db	32
  1667   001F38  43                 	db	67	;'C'
  1668   001F39  6C                 	db	108	;'l'
  1669   001F3A  6F                 	db	111	;'o'
  1670   001F3B  73                 	db	115	;'s'
  1671   001F3C  65                 	db	101	;'e'
  1672   001F3D  20                 	db	32
  1673   001F3E  62                 	db	98	;'b'
  1674   001F3F  6F                 	db	111	;'o'
  1675   001F40  74                 	db	116	;'t'
  1676   001F41  68                 	db	104	;'h'
  1677   001F42  20                 	db	32
  1678   001F43  64                 	db	100	;'d'
  1679   001F44  6F                 	db	111	;'o'
  1680   001F45  6F                 	db	111	;'o'
  1681   001F46  72                 	db	114	;'r'
  1682   001F47  73                 	db	115	;'s'
  1683   001F48  0D                 	db	13
  1684   001F49  0A                 	db	10
  1685   001F4A  00                 	db	0
  1686   001F4B                     STR_26:
  1687   001F4B  3E                 	db	62	;'>'
  1688   001F4C  20                 	db	32
  1689   001F4D  4C                 	db	76	;'L'
  1690   001F4E  53                 	db	83	;'S'
  1691   001F4F  42                 	db	66	;'B'
  1692   001F50  61                 	db	97	;'a'
  1693   001F51  6E                 	db	110	;'n'
  1694   001F52  6B                 	db	107	;'k'
  1695   001F53  20                 	db	32
  1696   001F54  2D                 	db	45
  1697   001F55  20                 	db	32
  1698   001F56  4F                 	db	79	;'O'
  1699   001F57  70                 	db	112	;'p'
  1700   001F58  65                 	db	101	;'e'
  1701   001F59  6E                 	db	110	;'n'
  1702   001F5A  20                 	db	32
  1703   001F5B  62                 	db	98	;'b'
  1704   001F5C  6F                 	db	111	;'o'
  1705   001F5D  74                 	db	116	;'t'
  1706   001F5E  68                 	db	104	;'h'
  1707   001F5F  20                 	db	32
  1708   001F60  64                 	db	100	;'d'
  1709   001F61  6F                 	db	111	;'o'
  1710   001F62  6F                 	db	111	;'o'
  1711   001F63  72                 	db	114	;'r'
  1712   001F64  73                 	db	115	;'s'
  1713   001F65  0D                 	db	13
  1714   001F66  0A                 	db	10
  1715   001F67  00                 	db	0
  1716   001F68                     STR_25:
  1717   001F68  3E                 	db	62	;'>'
  1718   001F69  20                 	db	32
  1719   001F6A  4C                 	db	76	;'L'
  1720   001F6B  53                 	db	83	;'S'
  1721   001F6C  42                 	db	66	;'B'
  1722   001F6D  61                 	db	97	;'a'
  1723   001F6E  6E                 	db	110	;'n'
  1724   001F6F  6B                 	db	107	;'k'
  1725   001F70  20                 	db	32
  1726   001F71  2D                 	db	45
  1727   001F72  20                 	db	32
  1728   001F73  45                 	db	69	;'E'
  1729   001F74  78                 	db	120	;'x'
  1730   001F75  69                 	db	105	;'i'
  1731   001F76  74                 	db	116	;'t'
  1732   001F77  20                 	db	32
  1733   001F78  52                 	db	82	;'R'
  1734   001F79  65                 	db	101	;'e'
  1735   001F7A  71                 	db	113	;'q'
  1736   001F7B  75                 	db	117	;'u'
  1737   001F7C  65                 	db	101	;'e'
  1738   001F7D  73                 	db	115	;'s'
  1739   001F7E  74                 	db	116	;'t'
  1740   001F7F  65                 	db	101	;'e'
  1741   001F80  64                 	db	100	;'d'
  1742   001F81  3A                 	db	58	;':'
  1743   001F82  20                 	db	32
  1744   001F83  00                 	db	0
  1745   001F84                     STR_22:
  1746   001F84  3E                 	db	62	;'>'
  1747   001F85  20                 	db	32
  1748   001F86  4C                 	db	76	;'L'
  1749   001F87  53                 	db	83	;'S'
  1750   001F88  42                 	db	66	;'B'
  1751   001F89  61                 	db	97	;'a'
  1752   001F8A  6E                 	db	110	;'n'
  1753   001F8B  6B                 	db	107	;'k'
  1754   001F8C  20                 	db	32
  1755   001F8D  2D                 	db	45
  1756   001F8E  20                 	db	32
  1757   001F8F  52                 	db	82	;'R'
  1758   001F90  65                 	db	101	;'e'
  1759   001F91  73                 	db	115	;'s'
  1760   001F92  65                 	db	101	;'e'
  1761   001F93  74                 	db	116	;'t'
  1762   001F94  20                 	db	32
  1763   001F95  53                 	db	83	;'S'
  1764   001F96  79                 	db	121	;'y'
  1765   001F97  73                 	db	115	;'s'
  1766   001F98  74                 	db	116	;'t'
  1767   001F99  65                 	db	101	;'e'
  1768   001F9A  6D                 	db	109	;'m'
  1769   001F9B  3A                 	db	58	;':'
  1770   001F9C  20                 	db	32
  1771   001F9D  00                 	db	0
  1772   001F9E                     STR_16:
  1773   001F9E  3E                 	db	62	;'>'
  1774   001F9F  20                 	db	32
  1775   001FA0  4C                 	db	76	;'L'
  1776   001FA1  53                 	db	83	;'S'
  1777   001FA2  42                 	db	66	;'B'
  1778   001FA3  61                 	db	97	;'a'
  1779   001FA4  6E                 	db	110	;'n'
  1780   001FA5  6B                 	db	107	;'k'
  1781   001FA6  20                 	db	32
  1782   001FA7  2D                 	db	45
  1783   001FA8  20                 	db	32
  1784   001FA9  45                 	db	69	;'E'
  1785   001FAA  6E                 	db	110	;'n'
  1786   001FAB  74                 	db	116	;'t'
  1787   001FAC  65                 	db	101	;'e'
  1788   001FAD  72                 	db	114	;'r'
  1789   001FAE  20                 	db	32
  1790   001FAF  50                 	db	80	;'P'
  1791   001FB0  49                 	db	73	;'I'
  1792   001FB1  4E                 	db	78	;'N'
  1793   001FB2  3A                 	db	58	;':'
  1794   001FB3  20                 	db	32
  1795   001FB4  00                 	db	0
  1796   001FB5                     STR_13:
  1797   001FB5  3E                 	db	62	;'>'
  1798   001FB6  20                 	db	32
  1799   001FB7  4C                 	db	76	;'L'
  1800   001FB8  53                 	db	83	;'S'
  1801   001FB9  42                 	db	66	;'B'
  1802   001FBA  61                 	db	97	;'a'
  1803   001FBB  6E                 	db	110	;'n'
  1804   001FBC  6B                 	db	107	;'k'
  1805   001FBD  20                 	db	32
  1806   001FBE  2D                 	db	45
  1807   001FBF  20                 	db	32
  1808   001FC0  4E                 	db	78	;'N'
  1809   001FC1  65                 	db	101	;'e'
  1810   001FC2  77                 	db	119	;'w'
  1811   001FC3  20                 	db	32
  1812   001FC4  44                 	db	68	;'D'
  1813   001FC5  61                 	db	97	;'a'
  1814   001FC6  79                 	db	121	;'y'
  1815   001FC7  21                 	db	33
  1816   001FC8  0D                 	db	13
  1817   001FC9  0A                 	db	10
  1818   001FCA  00                 	db	0
  1819   001FCB                     STR_3:
  1820   001FCB  50                 	db	80	;'P'
  1821   001FCC  51                 	db	81	;'Q'
  1822   001FCD  52                 	db	82	;'R'
  1823   001FCE  53                 	db	83	;'S'
  1824   001FCF  37                 	db	55	;'7'
  1825   001FD0  00                 	db	0
  1826   001FD1                     STR_11:
  1827   001FD1  57                 	db	87	;'W'
  1828   001FD2  58                 	db	88	;'X'
  1829   001FD3  59                 	db	89	;'Y'
  1830   001FD4  5A                 	db	90	;'Z'
  1831   001FD5  39                 	db	57	;'9'
  1832   001FD6  00                 	db	0
  1833   001FD7                     STR_5:
  1834   001FD7  41                 	db	65	;'A'
  1835   001FD8  42                 	db	66	;'B'
  1836   001FD9  43                 	db	67	;'C'
  1837   001FDA  32                 	db	50	;'2'
  1838   001FDB  00                 	db	0
  1839   001FDC                     STR_9:
  1840   001FDC  44                 	db	68	;'D'
  1841   001FDD  45                 	db	69	;'E'
  1842   001FDE  46                 	db	70	;'F'
  1843   001FDF  33                 	db	51	;'3'
  1844   001FE0  00                 	db	0
  1845   001FE1                     STR_2:
  1846   001FE1  47                 	db	71	;'G'
  1847   001FE2  48                 	db	72	;'H'
  1848   001FE3  49                 	db	73	;'I'
  1849   001FE4  34                 	db	52	;'4'
  1850   001FE5  00                 	db	0
  1851   001FE6                     STR_6:
  1852   001FE6  4A                 	db	74	;'J'
  1853   001FE7  4B                 	db	75	;'K'
  1854   001FE8  4C                 	db	76	;'L'
  1855   001FE9  35                 	db	53	;'5'
  1856   001FEA  00                 	db	0
  1857   001FEB                     STR_10:
  1858   001FEB  4D                 	db	77	;'M'
  1859   001FEC  4E                 	db	78	;'N'
  1860   001FED  4F                 	db	79	;'O'
  1861   001FEE  36                 	db	54	;'6'
  1862   001FEF  00                 	db	0
  1863   001FF0                     STR_7:
  1864   001FF0  54                 	db	84	;'T'
  1865   001FF1  55                 	db	85	;'U'
  1866   001FF2  56                 	db	86	;'V'
  1867   001FF3  38                 	db	56	;'8'
  1868   001FF4  00                 	db	0
  1869   001FF5                     STR_8:
  1870   001FF5  20                 	db	32
  1871   001FF6  30                 	db	48	;'0'
  1872   001FF7  00                 	db	0
  1873   001FF8                     STR_12:
  1874   001FF8  23                 	db	35
  1875   001FF9  00                 	db	0
  1876   001FFA                     STR_4:
  1877   001FFA  2A                 	db	42
  1878   001FFB  00                 	db	0
  1879   001FFC                     STR_1:
  1880   001FFC  31                 	db	49	;'1'
  1881   001FFD  00                 	db	0
  1882   001F84                     STR_23          equ	STR_22
  1883   001F68                     STR_27          equ	STR_25
  1884   001F9E                     STR_20          equ	STR_16
  1885   001F0E                     STR_21          equ	STR_17
  1886   001F0E                     STR_28          equ	STR_17
  1887   001FFE  00                 	db	0	; dummy byte at the end
  1888   001E54                     __smallconst    set	__pmediumconst
  1889   001E54                     __mediumconst   set	__pmediumconst
  1890   000002                     __activetblptr  equ	2
  1891                           
  1892                           ; #config settings
  1893                           
  1894                           	psect	cinit
  1895   001498                     __pcinit:
  1896                           	callstack 0
  1897   001498                     start_initialization:
  1898                           	callstack 0
  1899   001498                     __initialization:
  1900                           	callstack 0
  1901                           
  1902                           ; Initialize objects allocated to COMRAM (20 bytes)
  1903                           ; load TBLPTR registers with __pidataCOMRAM
  1904   001498  0EA8               	movlw	low __pidataCOMRAM
  1905   00149A  6EF6               	movwf	tblptrl,c
  1906   00149C  0E16               	movlw	high __pidataCOMRAM
  1907   00149E  6EF7               	movwf	tblptrh,c
  1908   0014A0  0E00               	movlw	low (__pidataCOMRAM shr (0+16))
  1909   0014A2  6EF8               	movwf	tblptru,c
  1910   0014A4  EE00  F057         	lfsr	0,__pdataCOMRAM
  1911   0014A8  EE10 F014          	lfsr	1,20
  1912   0014AC                     copy_data0:
  1913   0014AC  0009               	tblrd		*+
  1914   0014AE  CFF5 FFEE          	movff	tablat,postinc0
  1915   0014B2  50E5               	movf	postdec1,w,c
  1916   0014B4  50E1               	movf	fsr1l,w,c
  1917   0014B6  E1FA               	bnz	copy_data0
  1918                           
  1919                           ; Clear objects allocated to BANK0 (50 bytes)
  1920   0014B8  EE00  F080         	lfsr	0,__pbssBANK0
  1921   0014BC  0E32               	movlw	50
  1922   0014BE                     clear_0:
  1923   0014BE  6AEE               	clrf	postinc0,c
  1924   0014C0  06E8               	decf	wreg,f,c
  1925   0014C2  E1FD               	bnz	clear_0
  1926                           
  1927                           ; Clear objects allocated to COMRAM (65 bytes)
  1928   0014C4  EE00  F001         	lfsr	0,__pbssCOMRAM
  1929   0014C8  0E41               	movlw	65
  1930   0014CA                     clear_1:
  1931   0014CA  6AEE               	clrf	postinc0,c
  1932   0014CC  06E8               	decf	wreg,f,c
  1933   0014CE  E1FD               	bnz	clear_1
  1934   0014D0                     end_of_initialization:
  1935                           	callstack 0
  1936   0014D0                     __end_of__initialization:
  1937                           	callstack 0
  1938   0014D0  906B               	bcf	int$flags,0,c	;clear compiler interrupt flag (level 1)
  1939   0014D2  926B               	bcf	int$flags,1,c	;clear compiler interrupt flag (level 2)
  1940   0014D4  0E00               	movlw	low (__Lmediumconst shr (0+16))
  1941   0014D6  6EF8               	movwf	tblptru,c
  1942   0014D8  0100               	movlb	0
  1943   0014DA  EF90  F00A         	goto	_main	;jump to C main() function
  1944                           
  1945                           	psect	bssCOMRAM
  1946   000001                     __pbssCOMRAM:
  1947                           	callstack 0
  1948   000001                     _yesBuf:
  1949                           	callstack 0
  1950   000001                     	ds	4
  1951   000005                     processSpeakerSound@lastToggleTics:
  1952                           	callstack 0
  1953   000005                     	ds	4
  1954   000009                     _soundPeriod:
  1955                           	callstack 0
  1956   000009                     	ds	4
  1957   00000D                     _soundDuration:
  1958                           	callstack 0
  1959   00000D                     	ds	4
  1960   000011                     _Tics:
  1961                           	callstack 0
  1962   000011                     	ds	4
  1963   000015                     _uid_ptr:
  1964                           	callstack 0
  1965   000015                     	ds	2
  1966   000017                     _lista:
  1967                           	callstack 0
  1968   000017                     	ds	2
  1969   000019                     motorController@state:
  1970                           	callstack 0
  1971   000019                     	ds	1
  1972   00001A                     _yesIdx:
  1973                           	callstack 0
  1974   00001A                     	ds	1
  1975   00001B                     _password@TAD_Controller$F1163:
  1976                           	callstack 0
  1977   00001B                     	ds	1
  1978   00001C                     	ds	1
  1979   00001D                     _count@TAD_Controller$F1159:
  1980                           	callstack 0
  1981   00001D                     	ds	1
  1982   00001E                     _tries:
  1983                           	callstack 0
  1984   00001E                     	ds	1
  1985   00001F                     _i:
  1986                           	callstack 0
  1987   00001F                     	ds	1
  1988   000020                     motorButton@state:
  1989                           	callstack 0
  1990   000020                     	ds	1
  1991   000021                     _isPressed:
  1992                           	callstack 0
  1993   000021                     	ds	1
  1994   000022                     motorMatrix@state:
  1995                           	callstack 0
  1996   000022                     	ds	1
  1997   000023                     _flag@TAD_Matrix$F1045:
  1998                           	callstack 0
  1999   000023                     	ds	1
  2000   000024                     _count@TAD_Matrix$F1044:
  2001                           	callstack 0
  2002   000024                     	ds	1
  2003   000025                     _start@TAD_Matrix$F1042:
  2004                           	callstack 0
  2005   000025                     	ds	1
  2006   000026                     _editing:
  2007                           	callstack 0
  2008   000026                     	ds	1
  2009   000027                     _idx:
  2010                           	callstack 0
  2011   000027                     	ds	1
  2012   000028                     _key:
  2013                           	callstack 0
  2014   000028                     	ds	1
  2015   000029                     _lastColumn:
  2016                           	callstack 0
  2017   000029                     	ds	1
  2018   00002A                     _lastRow:
  2019                           	callstack 0
  2020   00002A                     	ds	1
  2021   00002B                     _newColumn:
  2022                           	callstack 0
  2023   00002B                     	ds	1
  2024   00002C                     _newRow:
  2025                           	callstack 0
  2026   00002C                     	ds	1
  2027   00002D                     _columns:
  2028                           	callstack 0
  2029   00002D                     	ds	1
  2030   00002E                     _rows:
  2031                           	callstack 0
  2032   00002E                     	ds	1
  2033   00002F                     motorLEDs@duty:
  2034                           	callstack 0
  2035   00002F                     	ds	1
  2036   000030                     motorLEDs@pwmStep:
  2037                           	callstack 0
  2038   000030                     	ds	1
  2039   000031                     motorLEDs@state:
  2040                           	callstack 0
  2041   000031                     	ds	1
  2042   000032                     _flag:
  2043                           	callstack 0
  2044   000032                     	ds	1
  2045   000033                     motorHall@state:
  2046                           	callstack 0
  2047   000033                     	ds	1
  2048   000034                     _hallEvent:
  2049                           	callstack 0
  2050   000034                     	ds	1
  2051   000035                     motorSpeaker@state:
  2052                           	callstack 0
  2053   000035                     	ds	1
  2054   000036                     _soundActive:
  2055                           	callstack 0
  2056   000036                     	ds	1
  2057   000037                     _stop:
  2058                           	callstack 0
  2059   000037                     	ds	1
  2060   000038                     _start:
  2061                           	callstack 0
  2062   000038                     	ds	1
  2063   000039                     _count:
  2064                           	callstack 0
  2065   000039                     	ds	1
  2066   00003A                     _timerHandle@TAD_Controller$F1167:
  2067                           	callstack 0
  2068   00003A                     	ds	1
  2069   00003B                     _timerHandle@TAD_Button$F1132:
  2070                           	callstack 0
  2071   00003B                     	ds	1
  2072   00003C                     _timer1s:
  2073                           	callstack 0
  2074   00003C                     	ds	1
  2075   00003D                     _timerHandle@TAD_Matrix$F1022:
  2076                           	callstack 0
  2077   00003D                     	ds	1
  2078   00003E                     _timerRamp:
  2079                           	callstack 0
  2080   00003E                     	ds	1
  2081   00003F                     _timerPWM:
  2082                           	callstack 0
  2083   00003F                     	ds	1
  2084   000040                     _soundTimerHandle:
  2085                           	callstack 0
  2086   000040                     	ds	1
  2087   000041                     _timerHandle:
  2088                           	callstack 0
  2089   000041                     	ds	1
  2090                           
  2091                           	psect	dataCOMRAM
  2092   000057                     __pdataCOMRAM:
  2093                           	callstack 0
  2094   000057                     _psswrd:
  2095                           	callstack 0
  2096   000057                     	ds	8
  2097   00005F                     _yes_aux:
  2098                           	callstack 0
  2099   00005F                     	ds	4
  2100   000063                     _password:
  2101                           	callstack 0
  2102   000063                     	ds	8
  2103                           
  2104                           	psect	bssBANK0
  2105   000080                     __pbssBANK0:
  2106                           	callstack 0
  2107   000080                     _Timers:
  2108                           	callstack 0
  2109   000080                     	ds	50
  2110                           
  2111                           	psect	cstackCOMRAM
  2112   000042                     __pcstackCOMRAM:
  2113                           	callstack 0
  2114   000042                     ?_SIO_CharAvail:
  2115                           	callstack 0
  2116   000042                     ?_TI_GetTics:
  2117                           	callstack 0
  2118   000042                     TI_Init@counter:
  2119                           	callstack 0
  2120   000042                     TI_NewTimer@TimerHandle:
  2121                           	callstack 0
  2122   000042                     TI_ResetTics@TimerHandle:
  2123                           	callstack 0
  2124   000042                     setSpeaker@st:
  2125                           	callstack 0
  2126   000042                     setStop@st:
  2127                           	callstack 0
  2128   000042                     SIO_SendChar@c:
  2129                           	callstack 0
  2130   000042                     getHall@aux:
  2131                           	callstack 0
  2132   000042                     setIntensity@aux:
  2133                           	callstack 0
  2134   000042                     _keyPressed$1050:
  2135                           	callstack 0
  2136   000042                     passwordSet@aux:
  2137                           	callstack 0
  2138   000042                     setMatrix@st:
  2139                           	callstack 0
  2140   000042                     getButton@aux:
  2141                           	callstack 0
  2142   000042                     ??_setOK:
  2143   000042                     ??_setAlarm:
  2144   000042                     ??_getKey:
  2145   000042                     ??_nextChar:
  2146   000042                     
  2147                           ; 1 bytes @ 0x0
  2148   000042                     	ds	1
  2149   000043                     setOK@aux:
  2150                           	callstack 0
  2151   000043                     setAlarm@aux:
  2152                           	callstack 0
  2153   000043                     speaker_sound@duracion_ms:
  2154                           	callstack 0
  2155   000043                     
  2156                           ; 1 bytes @ 0x1
  2157   000043                     	ds	1
  2158   000044                     TI_NewTimer@Comptador:
  2159                           	callstack 0
  2160   000044                     ??_SIO_CharAvail:
  2161                           
  2162                           ; 1 bytes @ 0x2
  2163   000044                     	ds	1
  2164   000045                     ??_speaker_sound:
  2165                           
  2166                           ; 1 bytes @ 0x3
  2167   000045                     	ds	1
  2168   000046                     ??_TI_GetTics:
  2169                           
  2170                           ; 1 bytes @ 0x4
  2171   000046                     	ds	3
  2172   000049                     speaker_sound@tipo:
  2173                           	callstack 0
  2174                           
  2175                           ; 1 bytes @ 0x7
  2176   000049                     	ds	1
  2177   00004A                     _speaker_sound$325:
  2178                           	callstack 0
  2179   00004A                     TI_GetTics@CopiaTicsActual:
  2180                           	callstack 0
  2181                           
  2182                           ; 4 bytes @ 0x8
  2183   00004A                     	ds	4
  2184   00004E                     TI_GetTics@TimerHandle:
  2185                           	callstack 0
  2186                           
  2187                           ; 1 bytes @ 0xC
  2188   00004E                     	ds	1
  2189   00004F                     ??_motorController:
  2190   00004F                     ??_motorLEDs:
  2191   00004F                     ??_processSpeakerSound:
  2192                           
  2193                           ; 1 bytes @ 0xD
  2194   00004F                     	ds	2
  2195   000051                     motorController@c:
  2196                           	callstack 0
  2197                           
  2198                           ; 1 bytes @ 0xF
  2199   000051                     	ds	1
  2200   000052                     motorController@c_1197:
  2201                           	callstack 0
  2202                           
  2203                           ; 1 bytes @ 0x10
  2204   000052                     	ds	1
  2205   000053                     processSpeakerSound@t:
  2206                           	callstack 0
  2207                           
  2208                           ; 4 bytes @ 0x11
  2209   000053                     	ds	4
  2210   000057                     
  2211                           ; 1 bytes @ 0x15
  2212 ;;
  2213 ;;Main: autosize = 0, tempsize = 0, incstack = 0, save=0
  2214 ;;
  2215 ;; *************** function _main *****************
  2216 ;; Defined at:
  2217 ;;		line 34 in file "main.c"
  2218 ;; Parameters:    Size  Location     Type
  2219 ;;		None
  2220 ;; Auto vars:     Size  Location     Type
  2221 ;;		None
  2222 ;; Return value:  Size  Location     Type
  2223 ;;                  1    wreg      void 
  2224 ;; Registers used:
  2225 ;;		wreg, fsr1l, fsr1h, fsr2l, fsr2h, status,2, status,0, tblptrl, tblptrh, tblptru, prodl, prodh, cstack
  2226 ;; Tracked objects:
  2227 ;;		On entry : 0/0
  2228 ;;		On exit  : 0/0
  2229 ;;		Unchanged: 0/0
  2230 ;; Data sizes:     COMRAM   BANK0   BANK1
  2231 ;;      Params:         0       0       0
  2232 ;;      Locals:         0       0       0
  2233 ;;      Temps:          0       0       0
  2234 ;;      Totals:         0       0       0
  2235 ;;Total ram usage:        0 bytes
  2236 ;; Hardware stack levels required when called: 5
  2237 ;; This function calls:
  2238 ;;		_Button_Init
  2239 ;;		_Controller_Init
  2240 ;;		_Hall_Init
  2241 ;;		_LED_Init
  2242 ;;		_Matrix_Init
  2243 ;;		_SIO_Init
  2244 ;;		_Speaker_Init
  2245 ;;		_TI_Init
  2246 ;;		_motorButton
  2247 ;;		_motorController
  2248 ;;		_motorHall
  2249 ;;		_motorLEDs
  2250 ;;		_motorMatrix
  2251 ;;		_motorSpeaker
  2252 ;; This function is called by:
  2253 ;;		Startup code after reset
  2254 ;; This function uses a non-reentrant model
  2255 ;;
  2256                           
  2257                           	psect	text0
  2258   001520                     __ptext0:
  2259                           	callstack 0
  2260   001520                     _main:
  2261                           	callstack 26
  2262   001520  EC24  F00B         	call	_SIO_Init	;wreg free
  2263   001524  ECB0  F00A         	call	_TI_Init	;wreg free
  2264   001528  ECDF  F00A         	call	_Matrix_Init	;wreg free
  2265   00152C  EC9B  F00B         	call	_Hall_Init	;wreg free
  2266   001530  EC68  F00B         	call	_Button_Init	;wreg free
  2267   001534  EC31  F00B         	call	_LED_Init	;wreg free
  2268   001538  EC49  F00B         	call	_Speaker_Init	;wreg free
  2269   00153C  EC82  F00B         	call	_Controller_Init	;wreg free
  2270   001540                     l2991:
  2271   001540  EC12  F000         	call	_motorController	;wreg free
  2272   001544  ECA6  F005         	call	_motorMatrix	;wreg free
  2273   001548  EC27  F00A         	call	_motorHall	;wreg free
  2274   00154C  ECAE  F008         	call	_motorButton	;wreg free
  2275   001550  ECC7  F007         	call	_motorLEDs	;wreg free
  2276   001554  EC38  F007         	call	_motorSpeaker	;wreg free
  2277   001558  EFA0  F00A         	goto	l2991
  2278   00155C  EF10  F000         	goto	start
  2279   001560                     __end_of_main:
  2280                           	callstack 0
  2281                           
  2282 ;; *************** function _motorSpeaker *****************
  2283 ;; Defined at:
  2284 ;;		line 82 in file "TAD_Speaker.c"
  2285 ;; Parameters:    Size  Location     Type
  2286 ;;		None
  2287 ;; Auto vars:     Size  Location     Type
  2288 ;;		None
  2289 ;; Return value:  Size  Location     Type
  2290 ;;                  1    wreg      void 
  2291 ;; Registers used:
  2292 ;;		wreg, fsr2l, fsr2h, status,2, status,0, prodl, prodh, cstack
  2293 ;; Tracked objects:
  2294 ;;		On entry : 0/0
  2295 ;;		On exit  : 0/0
  2296 ;;		Unchanged: 0/0
  2297 ;; Data sizes:     COMRAM   BANK0   BANK1
  2298 ;;      Params:         0       0       0
  2299 ;;      Locals:         0       0       0
  2300 ;;      Temps:          0       0       0
  2301 ;;      Totals:         0       0       0
  2302 ;;Total ram usage:        0 bytes
  2303 ;; Hardware stack levels used: 1
  2304 ;; Hardware stack levels required when called: 4
  2305 ;; This function calls:
  2306 ;;		_TI_GetTics
  2307 ;;		_TI_ResetTics
  2308 ;;		_processSpeakerSound
  2309 ;;		_speaker_sound
  2310 ;; This function is called by:
  2311 ;;		_main
  2312 ;; This function uses a non-reentrant model
  2313 ;;
  2314                           
  2315                           	psect	text1
  2316   000E70                     __ptext1:
  2317                           	callstack 0
  2318   000E70                     _motorSpeaker:
  2319                           	callstack 26
  2320   000E70                     
  2321                           ;TAD_Speaker.c: 83:     static unsigned char state = 0;;TAD_Speaker.c: 85:     processSp
      +                          eakerSound();
  2322   000E70  EC49  F008         	call	_processSpeakerSound	;wreg free
  2323                           
  2324                           ;TAD_Speaker.c: 87:     switch (state) {
  2325   000E74  EFB7  F007         	goto	l2973
  2326   000E78                     l2931:
  2327                           
  2328                           ;TAD_Speaker.c: 89:             if (start == 1) {
  2329   000E78  0438               	decf	_start^0,w,c
  2330   000E7A  A4D8               	btfss	status,2,c
  2331   000E7C  EF42  F007         	goto	u2421
  2332   000E80  EF44  F007         	goto	u2420
  2333   000E84                     u2421:
  2334   000E84  EFC6  F007         	goto	l150
  2335   000E88                     u2420:
  2336   000E88                     
  2337                           ;TAD_Speaker.c: 90:                 state = 1;
  2338   000E88  0E01               	movlw	1
  2339   000E8A  6E35               	movwf	motorSpeaker@state^0,c
  2340   000E8C                     
  2341                           ;TAD_Speaker.c: 91:                 TI_ResetTics(timerHandle);
  2342   000E8C  5041               	movf	_timerHandle^0,w,c
  2343   000E8E  EC04  F00B         	call	_TI_ResetTics
  2344   000E92                     l2937:
  2345                           
  2346                           ;TAD_Speaker.c: 92:                 count = 0;
  2347   000E92  6A39               	clrf	_count^0,c
  2348   000E94  EFC6  F007         	goto	l150
  2349   000E98                     l2939:
  2350                           
  2351                           ;TAD_Speaker.c: 96:             if (stop == 1) {
  2352   000E98  0437               	decf	_stop^0,w,c
  2353   000E9A  A4D8               	btfss	status,2,c
  2354   000E9C  EF52  F007         	goto	u2431
  2355   000EA0  EF54  F007         	goto	u2430
  2356   000EA4                     u2431:
  2357   000EA4  EF5A  F007         	goto	l2943
  2358   000EA8                     u2430:
  2359   000EA8                     l2941:
  2360                           
  2361                           ;TAD_Speaker.c: 97:                 state = 0;
  2362   000EA8  6A35               	clrf	motorSpeaker@state^0,c
  2363                           
  2364                           ;TAD_Speaker.c: 98:                 start = 0;
  2365   000EAA  6A38               	clrf	_start^0,c
  2366                           
  2367                           ;TAD_Speaker.c: 99:                 stop = 0;
  2368   000EAC  6A37               	clrf	_stop^0,c
  2369                           
  2370                           ;TAD_Speaker.c: 100:                 count = 0;
  2371   000EAE  6A39               	clrf	_count^0,c
  2372                           
  2373                           ;TAD_Speaker.c: 101:                 break;
  2374   000EB0  EFC6  F007         	goto	l150
  2375   000EB4                     l2943:
  2376                           
  2377                           ;TAD_Speaker.c: 103:             if (TI_GetTics(timerHandle) >= 500) {
  2378   000EB4  5041               	movf	_timerHandle^0,w,c
  2379   000EB6  EC01  F00A         	call	_TI_GetTics
  2380   000EBA  5045               	movf	(?_TI_GetTics+3)^0,w,c
  2381   000EBC  1044               	iorwf	(?_TI_GetTics+2)^0,w,c
  2382   000EBE  E10B               	bnz	u2440
  2383   000EC0  0EF4               	movlw	244
  2384   000EC2  5C42               	subwf	?_TI_GetTics^0,w,c
  2385   000EC4  0E01               	movlw	1
  2386   000EC6  5843               	subwfb	(?_TI_GetTics+1)^0,w,c
  2387   000EC8  A0D8               	btfss	status,0,c
  2388   000ECA  EF69  F007         	goto	u2441
  2389   000ECE  EF6B  F007         	goto	u2440
  2390   000ED2                     u2441:
  2391   000ED2  EFC6  F007         	goto	l150
  2392   000ED6                     u2440:
  2393   000ED6                     
  2394                           ;TAD_Speaker.c: 104:                 speaker_sound(0, 100);
  2395   000ED6  0E00               	movlw	0
  2396   000ED8  6E44               	movwf	(speaker_sound@duracion_ms+1)^0,c
  2397   000EDA  0E64               	movlw	100
  2398   000EDC  6E43               	movwf	speaker_sound@duracion_ms^0,c
  2399   000EDE  0E00               	movlw	0
  2400   000EE0  EC69  F009         	call	_speaker_sound
  2401                           
  2402                           ;TAD_Speaker.c: 105:                 TI_ResetTics(timerHandle);
  2403   000EE4  5041               	movf	_timerHandle^0,w,c
  2404   000EE6  EC04  F00B         	call	_TI_ResetTics
  2405   000EEA                     
  2406                           ;TAD_Speaker.c: 106:                 count++;
  2407   000EEA  2A39               	incf	_count^0,f,c
  2408   000EEC                     
  2409                           ;TAD_Speaker.c: 107:                 if (count >= 105) {
  2410   000EEC  0E68               	movlw	104
  2411   000EEE  6439               	cpfsgt	_count^0,c
  2412   000EF0  EF7C  F007         	goto	u2451
  2413   000EF4  EF7E  F007         	goto	u2450
  2414   000EF8                     u2451:
  2415   000EF8  EFC6  F007         	goto	l150
  2416   000EFC                     u2450:
  2417   000EFC                     
  2418                           ;TAD_Speaker.c: 108:                     state = 2;
  2419   000EFC  0E02               	movlw	2
  2420   000EFE  6E35               	movwf	motorSpeaker@state^0,c
  2421   000F00                     
  2422                           ;TAD_Speaker.c: 109:                     TI_ResetTics(timerHandle);
  2423   000F00  5041               	movf	_timerHandle^0,w,c
  2424   000F02  EC04  F00B         	call	_TI_ResetTics
  2425   000F06  EF49  F007         	goto	l2937
  2426   000F0A                     l2957:
  2427                           
  2428                           ;TAD_Speaker.c: 115:             if (stop == 1) {
  2429   000F0A  0437               	decf	_stop^0,w,c
  2430   000F0C  A4D8               	btfss	status,2,c
  2431   000F0E  EF8B  F007         	goto	u2461
  2432   000F12  EF8D  F007         	goto	u2460
  2433   000F16                     u2461:
  2434   000F16  EF8F  F007         	goto	l2961
  2435   000F1A                     u2460:
  2436   000F1A  EF54  F007         	goto	l2941
  2437   000F1E                     l2961:
  2438                           
  2439                           ;TAD_Speaker.c: 122:             if (TI_GetTics(timerHandle) >= 250) {
  2440   000F1E  5041               	movf	_timerHandle^0,w,c
  2441   000F20  EC01  F00A         	call	_TI_GetTics
  2442   000F24  5045               	movf	(?_TI_GetTics+3)^0,w,c
  2443   000F26  1044               	iorwf	(?_TI_GetTics+2)^0,w,c
  2444   000F28  1043               	iorwf	(?_TI_GetTics+1)^0,w,c
  2445   000F2A  E109               	bnz	u2470
  2446   000F2C  0EFA               	movlw	250
  2447   000F2E  5C42               	subwf	?_TI_GetTics^0,w,c
  2448   000F30  A0D8               	btfss	status,0,c
  2449   000F32  EF9D  F007         	goto	u2471
  2450   000F36  EF9F  F007         	goto	u2470
  2451   000F3A                     u2471:
  2452   000F3A  EFC6  F007         	goto	l150
  2453   000F3E                     u2470:
  2454   000F3E                     
  2455                           ;TAD_Speaker.c: 123:                 speaker_sound(0, 100);
  2456   000F3E  0E00               	movlw	0
  2457   000F40  6E44               	movwf	(speaker_sound@duracion_ms+1)^0,c
  2458   000F42  0E64               	movlw	100
  2459   000F44  6E43               	movwf	speaker_sound@duracion_ms^0,c
  2460   000F46  0E00               	movlw	0
  2461   000F48  EC69  F009         	call	_speaker_sound
  2462                           
  2463                           ;TAD_Speaker.c: 124:                 TI_ResetTics(timerHandle);
  2464   000F4C  5041               	movf	_timerHandle^0,w,c
  2465   000F4E  EC04  F00B         	call	_TI_ResetTics
  2466   000F52                     
  2467                           ;TAD_Speaker.c: 125:                 count++;
  2468   000F52  2A39               	incf	_count^0,f,c
  2469   000F54                     
  2470                           ;TAD_Speaker.c: 126:                 if (count >= 30) {
  2471   000F54  0E1D               	movlw	29
  2472   000F56  6439               	cpfsgt	_count^0,c
  2473   000F58  EFB0  F007         	goto	u2481
  2474   000F5C  EFB2  F007         	goto	u2480
  2475   000F60                     u2481:
  2476   000F60  EFC6  F007         	goto	l150
  2477   000F64                     u2480:
  2478   000F64                     
  2479                           ;TAD_Speaker.c: 127:                     state = 0;
  2480   000F64  6A35               	clrf	motorSpeaker@state^0,c
  2481                           
  2482                           ;TAD_Speaker.c: 128:                     start = 0;
  2483   000F66  6A38               	clrf	_start^0,c
  2484                           
  2485                           ;TAD_Speaker.c: 129:                     count = 0;
  2486   000F68  6A39               	clrf	_count^0,c
  2487   000F6A  EFC6  F007         	goto	l150
  2488   000F6E                     l2973:
  2489   000F6E  5035               	movf	motorSpeaker@state^0,w,c
  2490                           
  2491                           ; Switch size 1, requested type "simple"
  2492                           ; Number of cases is 3, Range of values is 0 to 2
  2493                           ; switch strategies available:
  2494                           ; Name         Instructions Cycles
  2495                           ; simple_byte           10     6 (average)
  2496                           ;	Chosen strategy is simple_byte
  2497   000F70  0A00               	xorlw	0	; case 0
  2498   000F72  B4D8               	btfsc	status,2,c
  2499   000F74  EF3C  F007         	goto	l2931
  2500   000F78  0A01               	xorlw	1	; case 1
  2501   000F7A  B4D8               	btfsc	status,2,c
  2502   000F7C  EF4C  F007         	goto	l2939
  2503   000F80  0A03               	xorlw	3	; case 2
  2504   000F82  B4D8               	btfsc	status,2,c
  2505   000F84  EF85  F007         	goto	l2957
  2506   000F88  EFC6  F007         	goto	l150
  2507   000F8C                     l150:
  2508   000F8C  0012               	return		;funcret
  2509   000F8E                     __end_of_motorSpeaker:
  2510                           	callstack 0
  2511                           
  2512 ;; *************** function _processSpeakerSound *****************
  2513 ;; Defined at:
  2514 ;;		line 60 in file "TAD_Speaker.c"
  2515 ;; Parameters:    Size  Location     Type
  2516 ;;		None
  2517 ;; Auto vars:     Size  Location     Type
  2518 ;;  t               4   17[COMRAM] unsigned long 
  2519 ;; Return value:  Size  Location     Type
  2520 ;;                  1    wreg      void 
  2521 ;; Registers used:
  2522 ;;		wreg, fsr2l, fsr2h, status,2, status,0, prodl, prodh, cstack
  2523 ;; Tracked objects:
  2524 ;;		On entry : 0/0
  2525 ;;		On exit  : 0/0
  2526 ;;		Unchanged: 0/0
  2527 ;; Data sizes:     COMRAM   BANK0   BANK1
  2528 ;;      Params:         0       0       0
  2529 ;;      Locals:         4       0       0
  2530 ;;      Temps:          4       0       0
  2531 ;;      Totals:         8       0       0
  2532 ;;Total ram usage:        8 bytes
  2533 ;; Hardware stack levels used: 1
  2534 ;; Hardware stack levels required when called: 3
  2535 ;; This function calls:
  2536 ;;		_TI_GetTics
  2537 ;; This function is called by:
  2538 ;;		_motorSpeaker
  2539 ;; This function uses a non-reentrant model
  2540 ;;
  2541                           
  2542                           	psect	text2
  2543   001092                     __ptext2:
  2544                           	callstack 0
  2545   001092                     _processSpeakerSound:
  2546                           	callstack 26
  2547   001092                     
  2548                           ;TAD_Speaker.c: 61:     static unsigned long lastToggleTics = 0;;TAD_Speaker.c: 63:     
      +                          if (soundActive == 0) {
  2549   001092  5036               	movf	_soundActive^0,w,c
  2550   001094  A4D8               	btfss	status,2,c
  2551   001096  EF4F  F008         	goto	u1361
  2552   00109A  EF51  F008         	goto	u1360
  2553   00109E                     u1361:
  2554   00109E  EF54  F008         	goto	l2233
  2555   0010A2                     u1360:
  2556   0010A2                     
  2557                           ;TAD_Speaker.c: 64:         LATCbits.LATC3 = 0;
  2558   0010A2  968B               	bcf	139,3,c	;volatile
  2559                           
  2560                           ;TAD_Speaker.c: 65:         return;
  2561   0010A4  EFAD  F008         	goto	l131
  2562   0010A8                     l2233:
  2563                           
  2564                           ;TAD_Speaker.c: 68:     unsigned long t = TI_GetTics(soundTimerHandle);
  2565   0010A8  5040               	movf	_soundTimerHandle^0,w,c
  2566   0010AA  EC01  F00A         	call	_TI_GetTics
  2567   0010AE  C042  F053         	movff	?_TI_GetTics,processSpeakerSound@t
  2568   0010B2  C043  F054         	movff	?_TI_GetTics+1,processSpeakerSound@t+1
  2569   0010B6  C044  F055         	movff	?_TI_GetTics+2,processSpeakerSound@t+2
  2570   0010BA  C045  F056         	movff	?_TI_GetTics+3,processSpeakerSound@t+3
  2571   0010BE                     
  2572                           ;TAD_Speaker.c: 70:     if ((t - lastToggleTics) >= soundPeriod) {
  2573   0010BE  5005               	movf	processSpeakerSound@lastToggleTics^0,w,c
  2574   0010C0  5C53               	subwf	processSpeakerSound@t^0,w,c
  2575   0010C2  6E4F               	movwf	??_processSpeakerSound^0,c
  2576   0010C4  5006               	movf	(processSpeakerSound@lastToggleTics+1)^0,w,c
  2577   0010C6  5854               	subwfb	(processSpeakerSound@t+1)^0,w,c
  2578   0010C8  6E50               	movwf	(??_processSpeakerSound+1)^0,c
  2579   0010CA  5007               	movf	(processSpeakerSound@lastToggleTics+2)^0,w,c
  2580   0010CC  5855               	subwfb	(processSpeakerSound@t+2)^0,w,c
  2581   0010CE  6E51               	movwf	(??_processSpeakerSound+2)^0,c
  2582   0010D0  5008               	movf	(processSpeakerSound@lastToggleTics+3)^0,w,c
  2583   0010D2  5856               	subwfb	(processSpeakerSound@t+3)^0,w,c
  2584   0010D4  6E52               	movwf	(??_processSpeakerSound+3)^0,c
  2585   0010D6  5009               	movf	_soundPeriod^0,w,c
  2586   0010D8  5C4F               	subwf	??_processSpeakerSound^0,w,c
  2587   0010DA  500A               	movf	(_soundPeriod+1)^0,w,c
  2588   0010DC  5850               	subwfb	(??_processSpeakerSound+1)^0,w,c
  2589   0010DE  500B               	movf	(_soundPeriod+2)^0,w,c
  2590   0010E0  5851               	subwfb	(??_processSpeakerSound+2)^0,w,c
  2591   0010E2  500C               	movf	(_soundPeriod+3)^0,w,c
  2592   0010E4  5852               	subwfb	(??_processSpeakerSound+3)^0,w,c
  2593   0010E6  A0D8               	btfss	status,0,c
  2594   0010E8  EF78  F008         	goto	u1371
  2595   0010EC  EF7A  F008         	goto	u1370
  2596   0010F0                     u1371:
  2597   0010F0  EF94  F008         	goto	l132
  2598   0010F4                     u1370:
  2599   0010F4                     
  2600                           ;TAD_Speaker.c: 71:         LATCbits.LATC3 = !LATCbits.LATC3;
  2601   0010F4  A68B               	btfss	139,3,c	;volatile
  2602   0010F6  EF7F  F008         	goto	u1381
  2603   0010FA  EF83  F008         	goto	u1380
  2604   0010FE                     u1381:
  2605   0010FE  6A4F               	clrf	??_processSpeakerSound^0,c
  2606   001100  2A4F               	incf	??_processSpeakerSound^0,f,c
  2607   001102  EF84  F008         	goto	u1398
  2608   001106                     u1380:
  2609   001106  6A4F               	clrf	??_processSpeakerSound^0,c
  2610   001108                     u1398:
  2611   001108  464F               	rlncf	??_processSpeakerSound^0,f,c
  2612   00110A  464F               	rlncf	??_processSpeakerSound^0,f,c
  2613   00110C  464F               	rlncf	??_processSpeakerSound^0,f,c
  2614   00110E  508B               	movf	139,w,c	;volatile
  2615   001110  184F               	xorwf	??_processSpeakerSound^0,w,c
  2616   001112  0BF7               	andlw	-9
  2617   001114  184F               	xorwf	??_processSpeakerSound^0,w,c
  2618   001116  6E8B               	movwf	139,c	;volatile
  2619   001118                     
  2620                           ;TAD_Speaker.c: 72:         lastToggleTics = t;
  2621   001118  C053  F005         	movff	processSpeakerSound@t,processSpeakerSound@lastToggleTics
  2622   00111C  C054  F006         	movff	processSpeakerSound@t+1,processSpeakerSound@lastToggleTics+1
  2623   001120  C055  F007         	movff	processSpeakerSound@t+2,processSpeakerSound@lastToggleTics+2
  2624   001124  C056  F008         	movff	processSpeakerSound@t+3,processSpeakerSound@lastToggleTics+3
  2625   001128                     l132:
  2626                           
  2627                           ;TAD_Speaker.c: 75:     if (t >= soundDuration) {
  2628   001128  500D               	movf	_soundDuration^0,w,c
  2629   00112A  5C53               	subwf	processSpeakerSound@t^0,w,c
  2630   00112C  500E               	movf	(_soundDuration+1)^0,w,c
  2631   00112E  5854               	subwfb	(processSpeakerSound@t+1)^0,w,c
  2632   001130  500F               	movf	(_soundDuration+2)^0,w,c
  2633   001132  5855               	subwfb	(processSpeakerSound@t+2)^0,w,c
  2634   001134  5010               	movf	(_soundDuration+3)^0,w,c
  2635   001136  5856               	subwfb	(processSpeakerSound@t+3)^0,w,c
  2636   001138  A0D8               	btfss	status,0,c
  2637   00113A  EFA1  F008         	goto	u1401
  2638   00113E  EFA3  F008         	goto	u1400
  2639   001142                     u1401:
  2640   001142  EFAD  F008         	goto	l131
  2641   001146                     u1400:
  2642   001146                     
  2643                           ;TAD_Speaker.c: 76:         soundActive = 0;
  2644   001146  6A36               	clrf	_soundActive^0,c
  2645                           
  2646                           ;TAD_Speaker.c: 77:         LATCbits.LATC3 = 0;
  2647   001148  968B               	bcf	139,3,c	;volatile
  2648   00114A                     
  2649                           ;TAD_Speaker.c: 78:         lastToggleTics = 0;
  2650   00114A  0E00               	movlw	0
  2651   00114C  6E05               	movwf	processSpeakerSound@lastToggleTics^0,c
  2652   00114E  0E00               	movlw	0
  2653   001150  6E06               	movwf	(processSpeakerSound@lastToggleTics+1)^0,c
  2654   001152  0E00               	movlw	0
  2655   001154  6E07               	movwf	(processSpeakerSound@lastToggleTics+2)^0,c
  2656   001156  0E00               	movlw	0
  2657   001158  6E08               	movwf	(processSpeakerSound@lastToggleTics+3)^0,c
  2658   00115A                     l131:
  2659   00115A  0012               	return		;funcret
  2660   00115C                     __end_of_processSpeakerSound:
  2661                           	callstack 0
  2662                           
  2663 ;; *************** function _motorMatrix *****************
  2664 ;; Defined at:
  2665 ;;		line 95 in file "TAD_Matrix.c"
  2666 ;; Parameters:    Size  Location     Type
  2667 ;;		None
  2668 ;; Auto vars:     Size  Location     Type
  2669 ;;		None
  2670 ;; Return value:  Size  Location     Type
  2671 ;;                  1    wreg      void 
  2672 ;; Registers used:
  2673 ;;		wreg, fsr2l, fsr2h, status,2, status,0, tblptrl, tblptrh, tblptru, prodl, prodh, cstack
  2674 ;; Tracked objects:
  2675 ;;		On entry : 0/0
  2676 ;;		On exit  : 0/0
  2677 ;;		Unchanged: 0/0
  2678 ;; Data sizes:     COMRAM   BANK0   BANK1
  2679 ;;      Params:         0       0       0
  2680 ;;      Locals:         0       0       0
  2681 ;;      Temps:          0       0       0
  2682 ;;      Totals:         0       0       0
  2683 ;;Total ram usage:        0 bytes
  2684 ;; Hardware stack levels used: 1
  2685 ;; Hardware stack levels required when called: 3
  2686 ;; This function calls:
  2687 ;;		_SIO_SendChar
  2688 ;;		_TI_GetTics
  2689 ;;		_TI_ResetTics
  2690 ;;		_getKey
  2691 ;;		_keyPressed
  2692 ;;		_nextChar
  2693 ;; This function is called by:
  2694 ;;		_main
  2695 ;; This function uses a non-reentrant model
  2696 ;;
  2697                           
  2698                           	psect	text3
  2699   000B4C                     __ptext3:
  2700                           	callstack 0
  2701   000B4C                     _motorMatrix:
  2702                           	callstack 27
  2703   000B4C                     
  2704                           ;TAD_Matrix.c: 96:     static char state = 0;;TAD_Matrix.c: 98:     if (start == 0) {
  2705   000B4C  5025               	movf	_start@TAD_Matrix$F1042^0,w,c
  2706   000B4E  A4D8               	btfss	status,2,c
  2707   000B50  EFAC  F005         	goto	u2041
  2708   000B54  EFAE  F005         	goto	u2040
  2709   000B58                     u2041:
  2710   000B58  EFB0  F005         	goto	l2719
  2711   000B5C                     u2040:
  2712   000B5C  EF37  F007         	goto	l350
  2713   000B60                     l2719:
  2714                           
  2715                           ;TAD_Matrix.c: 102:     if (editing == 1 && !keyPressed() && (TI_GetTics(timer1s) >= 500
      +                          )) {
  2716   000B60  0426               	decf	_editing^0,w,c
  2717   000B62  A4D8               	btfss	status,2,c
  2718   000B64  EFB6  F005         	goto	u2051
  2719   000B68  EFB8  F005         	goto	u2050
  2720   000B6C                     u2051:
  2721   000B6C  EF18  F007         	goto	l2867
  2722   000B70                     u2050:
  2723   000B70  EC6F  F00A         	call	_keyPressed	;wreg free
  2724   000B74  0900               	iorlw	0
  2725   000B76  A4D8               	btfss	status,2,c
  2726   000B78  EFC0  F005         	goto	u2061
  2727   000B7C  EFC2  F005         	goto	u2060
  2728   000B80                     u2061:
  2729   000B80  EF18  F007         	goto	l2867
  2730   000B84                     u2060:
  2731   000B84  503C               	movf	_timer1s^0,w,c
  2732   000B86  EC01  F00A         	call	_TI_GetTics
  2733   000B8A  5045               	movf	(?_TI_GetTics+3)^0,w,c
  2734   000B8C  1044               	iorwf	(?_TI_GetTics+2)^0,w,c
  2735   000B8E  E10B               	bnz	u2070
  2736   000B90  0EF4               	movlw	244
  2737   000B92  5C42               	subwf	?_TI_GetTics^0,w,c
  2738   000B94  0E01               	movlw	1
  2739   000B96  5843               	subwfb	(?_TI_GetTics+1)^0,w,c
  2740   000B98  A0D8               	btfss	status,0,c
  2741   000B9A  EFD1  F005         	goto	u2071
  2742   000B9E  EFD3  F005         	goto	u2070
  2743   000BA2                     u2071:
  2744   000BA2  EF18  F007         	goto	l2867
  2745   000BA6                     u2070:
  2746   000BA6                     
  2747                           ;TAD_Matrix.c: 103:         if (count < 7) {
  2748   000BA6  0E07               	movlw	7
  2749   000BA8  6024               	cpfslt	_count@TAD_Matrix$F1044^0,c
  2750   000BAA  EFD9  F005         	goto	u2081
  2751   000BAE  EFDB  F005         	goto	u2080
  2752   000BB2                     u2081:
  2753   000BB2  EFE9  F005         	goto	l2733
  2754   000BB6                     u2080:
  2755   000BB6                     
  2756                           ;TAD_Matrix.c: 104:             password[count] = key;
  2757   000BB6  5024               	movf	_count@TAD_Matrix$F1044^0,w,c
  2758   000BB8  0F63               	addlw	low _password
  2759   000BBA  6ED9               	movwf	fsr2l,c
  2760   000BBC  6ADA               	clrf	fsr2h,c
  2761   000BBE  C028  FFDF         	movff	_key,indf2
  2762   000BC2                     
  2763                           ;TAD_Matrix.c: 105:             SIO_SendChar(password[count]);
  2764   000BC2  5024               	movf	_count@TAD_Matrix$F1044^0,w,c
  2765   000BC4  0F63               	addlw	low _password
  2766   000BC6  6ED9               	movwf	fsr2l,c
  2767   000BC8  6ADA               	clrf	fsr2h,c
  2768   000BCA  50DF               	movf	indf2,w,c
  2769   000BCC  EC7D  F00B         	call	_SIO_SendChar
  2770   000BD0                     
  2771                           ;TAD_Matrix.c: 106:             count++;
  2772   000BD0  2A24               	incf	_count@TAD_Matrix$F1044^0,f,c
  2773   000BD2                     l2733:
  2774                           
  2775                           ;TAD_Matrix.c: 109:         if (count == 7) {
  2776   000BD2  0E07               	movlw	7
  2777   000BD4  1824               	xorwf	_count@TAD_Matrix$F1044^0,w,c
  2778   000BD6  A4D8               	btfss	status,2,c
  2779   000BD8  EFF0  F005         	goto	u2091
  2780   000BDC  EFF2  F005         	goto	u2090
  2781   000BE0                     u2091:
  2782   000BE0  EFF6  F005         	goto	l2741
  2783   000BE4                     u2090:
  2784   000BE4                     
  2785                           ;TAD_Matrix.c: 110:             password[7] = '\0';
  2786   000BE4  6A6A               	clrf	(_password+7)^0,c
  2787   000BE6                     
  2788                           ;TAD_Matrix.c: 111:             flag = 1;
  2789   000BE6  0E01               	movlw	1
  2790   000BE8  6E23               	movwf	_flag@TAD_Matrix$F1045^0,c
  2791   000BEA                     
  2792                           ;TAD_Matrix.c: 112:             count = 0;
  2793   000BEA  6A24               	clrf	_count@TAD_Matrix$F1044^0,c
  2794   000BEC                     l2741:
  2795                           
  2796                           ;TAD_Matrix.c: 114:         editing = 0;
  2797   000BEC  6A26               	clrf	_editing^0,c
  2798   000BEE  EF18  F007         	goto	l2867
  2799   000BF2                     l2743:
  2800                           
  2801                           ;TAD_Matrix.c: 119:             if (!keyPressed()) {
  2802   000BF2  EC6F  F00A         	call	_keyPressed	;wreg free
  2803   000BF6  0900               	iorlw	0
  2804   000BF8  A4D8               	btfss	status,2,c
  2805   000BFA  EF01  F006         	goto	u2101
  2806   000BFE  EF03  F006         	goto	u2100
  2807   000C02                     u2101:
  2808   000C02  EF0B  F006         	goto	l2749
  2809   000C06                     u2100:
  2810   000C06                     
  2811                           ;TAD_Matrix.c: 120:                 columns = 0;
  2812   000C06  6A2D               	clrf	_columns^0,c
  2813                           
  2814                           ;TAD_Matrix.c: 121:                 LATDbits.LATD5 = 0;
  2815   000C08  9A8C               	bcf	140,5,c	;volatile
  2816                           
  2817                           ;TAD_Matrix.c: 122:                 LATDbits.LATD6 = 1;
  2818   000C0A  8C8C               	bsf	140,6,c	;volatile
  2819                           
  2820                           ;TAD_Matrix.c: 123:                 LATDbits.LATD7 = 1;
  2821   000C0C  8E8C               	bsf	140,7,c	;volatile
  2822   000C0E                     
  2823                           ;TAD_Matrix.c: 124:                 state = 1;
  2824   000C0E  0E01               	movlw	1
  2825   000C10  6E22               	movwf	motorMatrix@state^0,c
  2826                           
  2827                           ;TAD_Matrix.c: 125:             } else {
  2828   000C12  EF37  F007         	goto	l350
  2829   000C16                     l2749:
  2830                           
  2831                           ;TAD_Matrix.c: 126:                 TI_ResetTics(timerHandle);
  2832   000C16  503D               	movf	_timerHandle@TAD_Matrix$F1022^0,w,c
  2833   000C18  EC04  F00B         	call	_TI_ResetTics
  2834   000C1C                     l2751:
  2835                           
  2836                           ;TAD_Matrix.c: 127:                 state = 3;
  2837   000C1C  0E03               	movlw	3
  2838   000C1E  6E22               	movwf	motorMatrix@state^0,c
  2839   000C20  EF37  F007         	goto	l350
  2840   000C24                     l2753:
  2841                           
  2842                           ;TAD_Matrix.c: 131:             if (!keyPressed()) {
  2843   000C24  EC6F  F00A         	call	_keyPressed	;wreg free
  2844   000C28  0900               	iorlw	0
  2845   000C2A  A4D8               	btfss	status,2,c
  2846   000C2C  EF1A  F006         	goto	u2111
  2847   000C30  EF1C  F006         	goto	u2110
  2848   000C34                     u2111:
  2849   000C34  EF25  F006         	goto	l2763
  2850   000C38                     u2110:
  2851   000C38                     
  2852                           ;TAD_Matrix.c: 132:                 columns = 1;
  2853   000C38  0E01               	movlw	1
  2854   000C3A  6E2D               	movwf	_columns^0,c
  2855   000C3C                     
  2856                           ;TAD_Matrix.c: 133:                 LATDbits.LATD5 = 1;
  2857   000C3C  8A8C               	bsf	140,5,c	;volatile
  2858   000C3E                     
  2859                           ;TAD_Matrix.c: 134:                 LATDbits.LATD6 = 0;
  2860   000C3E  9C8C               	bcf	140,6,c	;volatile
  2861   000C40                     
  2862                           ;TAD_Matrix.c: 135:                 LATDbits.LATD7 = 1;
  2863   000C40  8E8C               	bsf	140,7,c	;volatile
  2864                           
  2865                           ;TAD_Matrix.c: 136:                 state = 2;
  2866   000C42  0E02               	movlw	2
  2867   000C44  6E22               	movwf	motorMatrix@state^0,c
  2868                           
  2869                           ;TAD_Matrix.c: 137:             } else {
  2870   000C46  EF37  F007         	goto	l350
  2871   000C4A                     l2763:
  2872                           
  2873                           ;TAD_Matrix.c: 138:                 TI_ResetTics(timerHandle);
  2874   000C4A  503D               	movf	_timerHandle@TAD_Matrix$F1022^0,w,c
  2875   000C4C  EC04  F00B         	call	_TI_ResetTics
  2876   000C50  EF0E  F006         	goto	l2751
  2877   000C54                     l2767:
  2878                           
  2879                           ;TAD_Matrix.c: 143:             if (!keyPressed()) {
  2880   000C54  EC6F  F00A         	call	_keyPressed	;wreg free
  2881   000C58  0900               	iorlw	0
  2882   000C5A  A4D8               	btfss	status,2,c
  2883   000C5C  EF32  F006         	goto	u2121
  2884   000C60  EF34  F006         	goto	u2120
  2885   000C64                     u2121:
  2886   000C64  EF3C  F006         	goto	l2779
  2887   000C68                     u2120:
  2888   000C68                     
  2889                           ;TAD_Matrix.c: 144:                 columns = 2;
  2890   000C68  0E02               	movlw	2
  2891   000C6A  6E2D               	movwf	_columns^0,c
  2892   000C6C                     
  2893                           ;TAD_Matrix.c: 145:                 LATDbits.LATD5 = 1;
  2894   000C6C  8A8C               	bsf	140,5,c	;volatile
  2895   000C6E                     
  2896                           ;TAD_Matrix.c: 146:                 LATDbits.LATD6 = 1;
  2897   000C6E  8C8C               	bsf	140,6,c	;volatile
  2898   000C70                     
  2899                           ;TAD_Matrix.c: 147:                 LATDbits.LATD7 = 0;
  2900   000C70  9E8C               	bcf	140,7,c	;volatile
  2901   000C72                     l2777:
  2902                           
  2903                           ;TAD_Matrix.c: 148:                 state = 0;
  2904   000C72  6A22               	clrf	motorMatrix@state^0,c
  2905                           
  2906                           ;TAD_Matrix.c: 149:             } else {
  2907   000C74  EF37  F007         	goto	l350
  2908   000C78                     l2779:
  2909                           
  2910                           ;TAD_Matrix.c: 150:                 TI_ResetTics(timerHandle);
  2911   000C78  503D               	movf	_timerHandle@TAD_Matrix$F1022^0,w,c
  2912   000C7A  EC04  F00B         	call	_TI_ResetTics
  2913   000C7E  EF0E  F006         	goto	l2751
  2914   000C82                     l2783:
  2915                           
  2916                           ;TAD_Matrix.c: 155:             if (!keyPressed()) {
  2917   000C82  EC6F  F00A         	call	_keyPressed	;wreg free
  2918   000C86  0900               	iorlw	0
  2919   000C88  A4D8               	btfss	status,2,c
  2920   000C8A  EF49  F006         	goto	u2131
  2921   000C8E  EF4B  F006         	goto	u2130
  2922   000C92                     u2131:
  2923   000C92  EF4D  F006         	goto	l2787
  2924   000C96                     u2130:
  2925   000C96  EF39  F006         	goto	l2777
  2926   000C9A                     l2787:
  2927   000C9A  503D               	movf	_timerHandle@TAD_Matrix$F1022^0,w,c
  2928   000C9C  EC01  F00A         	call	_TI_GetTics
  2929   000CA0  5045               	movf	(?_TI_GetTics+3)^0,w,c
  2930   000CA2  1044               	iorwf	(?_TI_GetTics+2)^0,w,c
  2931   000CA4  1043               	iorwf	(?_TI_GetTics+1)^0,w,c
  2932   000CA6  E109               	bnz	u2140
  2933   000CA8  0E09               	movlw	9
  2934   000CAA  5C42               	subwf	?_TI_GetTics^0,w,c
  2935   000CAC  A0D8               	btfss	status,0,c
  2936   000CAE  EF5B  F006         	goto	u2141
  2937   000CB2  EF5D  F006         	goto	u2140
  2938   000CB6                     u2141:
  2939   000CB6  EF37  F007         	goto	l350
  2940   000CBA                     u2140:
  2941   000CBA                     
  2942                           ;TAD_Matrix.c: 159:                 if (PORTBbits.RB0 == 0) {
  2943   000CBA  B081               	btfsc	129,0,c	;volatile
  2944   000CBC  EF62  F006         	goto	u2151
  2945   000CC0  EF64  F006         	goto	u2150
  2946   000CC4                     u2151:
  2947   000CC4  EF67  F006         	goto	l369
  2948   000CC8                     u2150:
  2949   000CC8                     
  2950                           ;TAD_Matrix.c: 160:                     newRow = 0;
  2951   000CC8  6A2C               	clrf	_newRow^0,c
  2952                           
  2953                           ;TAD_Matrix.c: 161:                 } else if (PORTBbits.RB1 == 0) {
  2954   000CCA  EF88  F006         	goto	l2799
  2955   000CCE                     l369:
  2956   000CCE  B281               	btfsc	129,1,c	;volatile
  2957   000CD0  EF6C  F006         	goto	u2161
  2958   000CD4  EF6E  F006         	goto	u2160
  2959   000CD8                     u2161:
  2960   000CD8  EF72  F006         	goto	l371
  2961   000CDC                     u2160:
  2962   000CDC                     
  2963                           ;TAD_Matrix.c: 162:                     newRow = 1;
  2964   000CDC  0E01               	movlw	1
  2965   000CDE  6E2C               	movwf	_newRow^0,c
  2966                           
  2967                           ;TAD_Matrix.c: 163:                 } else if (PORTBbits.RB2 == 0) {
  2968   000CE0  EF88  F006         	goto	l2799
  2969   000CE4                     l371:
  2970   000CE4  B481               	btfsc	129,2,c	;volatile
  2971   000CE6  EF77  F006         	goto	u2171
  2972   000CEA  EF79  F006         	goto	u2170
  2973   000CEE                     u2171:
  2974   000CEE  EF7D  F006         	goto	l373
  2975   000CF2                     u2170:
  2976   000CF2                     
  2977                           ;TAD_Matrix.c: 164:                     newRow = 2;
  2978   000CF2  0E02               	movlw	2
  2979   000CF4  6E2C               	movwf	_newRow^0,c
  2980                           
  2981                           ;TAD_Matrix.c: 165:                 } else if (PORTBbits.RB3 == 0) {
  2982   000CF6  EF88  F006         	goto	l2799
  2983   000CFA                     l373:
  2984   000CFA  B681               	btfsc	129,3,c	;volatile
  2985   000CFC  EF82  F006         	goto	u2181
  2986   000D00  EF84  F006         	goto	u2180
  2987   000D04                     u2181:
  2988   000D04  EF88  F006         	goto	l372
  2989   000D08                     u2180:
  2990   000D08                     
  2991                           ;TAD_Matrix.c: 166:                     newRow = 3;
  2992   000D08  0E03               	movlw	3
  2993   000D0A  6E2C               	movwf	_newRow^0,c
  2994   000D0C  EF88  F006         	goto	l2799
  2995   000D10                     l372:
  2996   000D10                     l2799:
  2997                           
  2998                           ;TAD_Matrix.c: 168:                 newColumn = columns;
  2999   000D10  C02D  F02B         	movff	_columns,_newColumn
  3000   000D14                     
  3001                           ;TAD_Matrix.c: 170:                 if (newRow == 3 && ((newColumn == 0) || (newColumn =
      +                          = 2))) {
  3002   000D14  0E03               	movlw	3
  3003   000D16  182C               	xorwf	_newRow^0,w,c
  3004   000D18  A4D8               	btfss	status,2,c
  3005   000D1A  EF91  F006         	goto	u2191
  3006   000D1E  EF93  F006         	goto	u2190
  3007   000D22                     u2191:
  3008   000D22  EFA8  F006         	goto	l2809
  3009   000D26                     u2190:
  3010   000D26  502B               	movf	_newColumn^0,w,c
  3011   000D28  B4D8               	btfsc	status,2,c
  3012   000D2A  EF99  F006         	goto	u2201
  3013   000D2E  EF9B  F006         	goto	u2200
  3014   000D32                     u2201:
  3015   000D32  EFA4  F006         	goto	l2807
  3016   000D36                     u2200:
  3017   000D36  0E02               	movlw	2
  3018   000D38  182B               	xorwf	_newColumn^0,w,c
  3019   000D3A  A4D8               	btfss	status,2,c
  3020   000D3C  EFA2  F006         	goto	u2211
  3021   000D40  EFA4  F006         	goto	u2210
  3022   000D44                     u2211:
  3023   000D44  EFA8  F006         	goto	l2809
  3024   000D48                     u2210:
  3025   000D48                     l2807:
  3026                           
  3027                           ;TAD_Matrix.c: 171:                     state = 6;
  3028   000D48  0E06               	movlw	6
  3029   000D4A  6E22               	movwf	motorMatrix@state^0,c
  3030                           
  3031                           ;TAD_Matrix.c: 172:                     break;
  3032   000D4C  EF37  F007         	goto	l350
  3033   000D50                     l2809:
  3034                           
  3035                           ;TAD_Matrix.c: 175:                 TI_ResetTics(timer1s);
  3036   000D50  503C               	movf	_timer1s^0,w,c
  3037   000D52  EC04  F00B         	call	_TI_ResetTics
  3038   000D56                     
  3039                           ;TAD_Matrix.c: 177:                 if (editing == 0) {
  3040   000D56  5026               	movf	_editing^0,w,c
  3041   000D58  A4D8               	btfss	status,2,c
  3042   000D5A  EFB1  F006         	goto	u2221
  3043   000D5E  EFB3  F006         	goto	u2220
  3044   000D62                     u2221:
  3045   000D62  EFB7  F006         	goto	l2815
  3046   000D66                     u2220:
  3047   000D66                     
  3048                           ;TAD_Matrix.c: 178:                     state = 4;
  3049   000D66  0E04               	movlw	4
  3050   000D68  6E22               	movwf	motorMatrix@state^0,c
  3051                           
  3052                           ;TAD_Matrix.c: 179:                 } else {
  3053   000D6A  EF37  F007         	goto	l350
  3054   000D6E                     l2815:
  3055                           
  3056                           ;TAD_Matrix.c: 180:                     if (newColumn == lastColumn && newRow == lastRow
      +                          ) {
  3057   000D6E  5029               	movf	_lastColumn^0,w,c
  3058   000D70  182B               	xorwf	_newColumn^0,w,c
  3059   000D72  A4D8               	btfss	status,2,c
  3060   000D74  EFBE  F006         	goto	u2231
  3061   000D78  EFC0  F006         	goto	u2230
  3062   000D7C                     u2231:
  3063   000D7C  EFCD  F006         	goto	l2823
  3064   000D80                     u2230:
  3065   000D80  502A               	movf	_lastRow^0,w,c
  3066   000D82  182C               	xorwf	_newRow^0,w,c
  3067   000D84  A4D8               	btfss	status,2,c
  3068   000D86  EFC7  F006         	goto	u2241
  3069   000D8A  EFC9  F006         	goto	u2240
  3070   000D8E                     u2241:
  3071   000D8E  EFCD  F006         	goto	l2823
  3072   000D92                     u2240:
  3073   000D92                     
  3074                           ;TAD_Matrix.c: 181:                         nextChar();
  3075   000D92  ECA7  F009         	call	_nextChar	;wreg free
  3076   000D96  EFA4  F006         	goto	l2807
  3077   000D9A                     l2823:
  3078                           
  3079                           ;TAD_Matrix.c: 184:                         state = 5;
  3080   000D9A  0E05               	movlw	5
  3081   000D9C  6E22               	movwf	motorMatrix@state^0,c
  3082   000D9E  EF37  F007         	goto	l350
  3083   000DA2                     l383:
  3084                           
  3085                           ;TAD_Matrix.c: 190:             lastRow = newRow;
  3086   000DA2  C02C  F02A         	movff	_newRow,_lastRow
  3087                           
  3088                           ;TAD_Matrix.c: 191:             lastColumn = newColumn;
  3089   000DA6  C02B  F029         	movff	_newColumn,_lastColumn
  3090                           
  3091                           ;TAD_Matrix.c: 192:             rows = newRow;
  3092   000DAA  C02C  F02E         	movff	_newRow,_rows
  3093                           
  3094                           ;TAD_Matrix.c: 193:             columns = newColumn;
  3095   000DAE  C02B  F02D         	movff	_newColumn,_columns
  3096   000DB2                     l2825:
  3097                           
  3098                           ;TAD_Matrix.c: 194:             getKey();
  3099   000DB2  EC11  F009         	call	_getKey	;wreg free
  3100   000DB6                     
  3101                           ;TAD_Matrix.c: 195:             editing = 1;
  3102   000DB6  0E01               	movlw	1
  3103   000DB8  6E26               	movwf	_editing^0,c
  3104   000DBA  EFA4  F006         	goto	l2807
  3105   000DBE                     l2831:
  3106                           
  3107                           ;TAD_Matrix.c: 199:             if (count < 7) {
  3108   000DBE  0E07               	movlw	7
  3109   000DC0  6024               	cpfslt	_count@TAD_Matrix$F1044^0,c
  3110   000DC2  EFE5  F006         	goto	u2251
  3111   000DC6  EFE7  F006         	goto	u2250
  3112   000DCA                     u2251:
  3113   000DCA  EFF5  F006         	goto	l2839
  3114   000DCE                     u2250:
  3115   000DCE                     
  3116                           ;TAD_Matrix.c: 200:                 password[count] = key;
  3117   000DCE  5024               	movf	_count@TAD_Matrix$F1044^0,w,c
  3118   000DD0  0F63               	addlw	low _password
  3119   000DD2  6ED9               	movwf	fsr2l,c
  3120   000DD4  6ADA               	clrf	fsr2h,c
  3121   000DD6  C028  FFDF         	movff	_key,indf2
  3122   000DDA                     
  3123                           ;TAD_Matrix.c: 201:                 SIO_SendChar(password[count]);
  3124   000DDA  5024               	movf	_count@TAD_Matrix$F1044^0,w,c
  3125   000DDC  0F63               	addlw	low _password
  3126   000DDE  6ED9               	movwf	fsr2l,c
  3127   000DE0  6ADA               	clrf	fsr2h,c
  3128   000DE2  50DF               	movf	indf2,w,c
  3129   000DE4  EC7D  F00B         	call	_SIO_SendChar
  3130   000DE8                     
  3131                           ;TAD_Matrix.c: 202:                 count++;
  3132   000DE8  2A24               	incf	_count@TAD_Matrix$F1044^0,f,c
  3133   000DEA                     l2839:
  3134                           
  3135                           ;TAD_Matrix.c: 204:             if (count == 7) {
  3136   000DEA  0E07               	movlw	7
  3137   000DEC  1824               	xorwf	_count@TAD_Matrix$F1044^0,w,c
  3138   000DEE  A4D8               	btfss	status,2,c
  3139   000DF0  EFFC  F006         	goto	u2261
  3140   000DF4  EFFE  F006         	goto	u2260
  3141   000DF8                     u2261:
  3142   000DF8  EF02  F007         	goto	l2847
  3143   000DFC                     u2260:
  3144   000DFC                     
  3145                           ;TAD_Matrix.c: 205:                 password[7] = '\0';
  3146   000DFC  6A6A               	clrf	(_password+7)^0,c
  3147   000DFE                     
  3148                           ;TAD_Matrix.c: 206:                 flag = 1;
  3149   000DFE  0E01               	movlw	1
  3150   000E00  6E23               	movwf	_flag@TAD_Matrix$F1045^0,c
  3151   000E02                     
  3152                           ;TAD_Matrix.c: 207:                 count = 0;
  3153   000E02  6A24               	clrf	_count@TAD_Matrix$F1044^0,c
  3154   000E04                     l2847:
  3155                           
  3156                           ;TAD_Matrix.c: 210:             lastRow = newRow;
  3157   000E04  C02C  F02A         	movff	_newRow,_lastRow
  3158   000E08                     
  3159                           ;TAD_Matrix.c: 211:             lastColumn = newColumn;
  3160   000E08  C02B  F029         	movff	_newColumn,_lastColumn
  3161   000E0C                     
  3162                           ;TAD_Matrix.c: 212:             rows = newRow;
  3163   000E0C  C02C  F02E         	movff	_newRow,_rows
  3164   000E10                     
  3165                           ;TAD_Matrix.c: 213:             columns = newColumn;
  3166   000E10  C02B  F02D         	movff	_newColumn,_columns
  3167   000E14  EFD9  F006         	goto	l2825
  3168   000E18                     l2861:
  3169                           
  3170                           ;TAD_Matrix.c: 221:             if (!keyPressed()) {
  3171   000E18  EC6F  F00A         	call	_keyPressed	;wreg free
  3172   000E1C  0900               	iorlw	0
  3173   000E1E  A4D8               	btfss	status,2,c
  3174   000E20  EF14  F007         	goto	u2271
  3175   000E24  EF16  F007         	goto	u2270
  3176   000E28                     u2271:
  3177   000E28  EF37  F007         	goto	l350
  3178   000E2C                     u2270:
  3179   000E2C  EF39  F006         	goto	l2777
  3180   000E30                     l2867:
  3181   000E30  5022               	movf	motorMatrix@state^0,w,c
  3182                           
  3183                           ; Switch size 1, requested type "simple"
  3184                           ; Number of cases is 7, Range of values is 0 to 6
  3185                           ; switch strategies available:
  3186                           ; Name         Instructions Cycles
  3187                           ; simple_byte           22    12 (average)
  3188                           ;	Chosen strategy is simple_byte
  3189   000E32  0A00               	xorlw	0	; case 0
  3190   000E34  B4D8               	btfsc	status,2,c
  3191   000E36  EFF9  F005         	goto	l2743
  3192   000E3A  0A01               	xorlw	1	; case 1
  3193   000E3C  B4D8               	btfsc	status,2,c
  3194   000E3E  EF12  F006         	goto	l2753
  3195   000E42  0A03               	xorlw	3	; case 2
  3196   000E44  B4D8               	btfsc	status,2,c
  3197   000E46  EF2A  F006         	goto	l2767
  3198   000E4A  0A01               	xorlw	1	; case 3
  3199   000E4C  B4D8               	btfsc	status,2,c
  3200   000E4E  EF41  F006         	goto	l2783
  3201   000E52  0A07               	xorlw	7	; case 4
  3202   000E54  B4D8               	btfsc	status,2,c
  3203   000E56  EFD1  F006         	goto	l383
  3204   000E5A  0A01               	xorlw	1	; case 5
  3205   000E5C  B4D8               	btfsc	status,2,c
  3206   000E5E  EFDF  F006         	goto	l2831
  3207   000E62  0A03               	xorlw	3	; case 6
  3208   000E64  B4D8               	btfsc	status,2,c
  3209   000E66  EF0C  F007         	goto	l2861
  3210   000E6A  EF37  F007         	goto	l350
  3211   000E6E                     l350:
  3212   000E6E  0012               	return		;funcret
  3213   000E70                     __end_of_motorMatrix:
  3214                           	callstack 0
  3215                           
  3216 ;; *************** function _nextChar *****************
  3217 ;; Defined at:
  3218 ;;		line 70 in file "TAD_Matrix.c"
  3219 ;; Parameters:    Size  Location     Type
  3220 ;;		None
  3221 ;; Auto vars:     Size  Location     Type
  3222 ;;		None
  3223 ;; Return value:  Size  Location     Type
  3224 ;;                  1    wreg      void 
  3225 ;; Registers used:
  3226 ;;		wreg, status,2, status,0, tblptrl, tblptrh, tblptru
  3227 ;; Tracked objects:
  3228 ;;		On entry : 0/0
  3229 ;;		On exit  : 0/0
  3230 ;;		Unchanged: 0/0
  3231 ;; Data sizes:     COMRAM   BANK0   BANK1
  3232 ;;      Params:         0       0       0
  3233 ;;      Locals:         0       0       0
  3234 ;;      Temps:          2       0       0
  3235 ;;      Totals:         2       0       0
  3236 ;;Total ram usage:        2 bytes
  3237 ;; Hardware stack levels used: 1
  3238 ;; Hardware stack levels required when called: 2
  3239 ;; This function calls:
  3240 ;;		Nothing
  3241 ;; This function is called by:
  3242 ;;		_motorMatrix
  3243 ;; This function uses a non-reentrant model
  3244 ;;
  3245                           
  3246                           	psect	text4
  3247   00134E                     __ptext4:
  3248                           	callstack 0
  3249   00134E                     _nextChar:
  3250                           	callstack 27
  3251   00134E                     
  3252                           ;TAD_Matrix.c: 71:     if (lista == 0) {
  3253   00134E  5017               	movf	_lista^0,w,c
  3254   001350  1018               	iorwf	(_lista+1)^0,w,c
  3255   001352  A4D8               	btfss	status,2,c
  3256   001354  EFAE  F009         	goto	u241
  3257   001358  EFB0  F009         	goto	u240
  3258   00135C                     u241:
  3259   00135C  EFB2  F009         	goto	l1395
  3260   001360                     u240:
  3261   001360  EFD5  F009         	goto	l334
  3262   001364                     l1395:
  3263                           
  3264                           ;TAD_Matrix.c: 74:     idx++;
  3265   001364  2A27               	incf	_idx^0,f,c
  3266   001366                     
  3267                           ;TAD_Matrix.c: 75:     if (lista[idx] == '\0') {
  3268   001366  5027               	movf	_idx^0,w,c
  3269   001368  2417               	addwf	_lista^0,w,c
  3270   00136A  6E42               	movwf	??_nextChar^0,c
  3271   00136C  0E00               	movlw	0
  3272   00136E  2018               	addwfc	(_lista+1)^0,w,c
  3273   001370  6E43               	movwf	(??_nextChar+1)^0,c
  3274   001372  C042  FFF6         	movff	??_nextChar,tblptrl
  3275   001376  C043  FFF7         	movff	??_nextChar+1,tblptrh
  3276   00137A                     	if	0	;tblptru may be non-zero
  3277   00137A                     	endif
  3278   00137A                     	if	0	;tblptru may be non-zero
  3279   00137A                     	endif
  3280   00137A  0008               	tblrd		*
  3281   00137C  50F5               	movf	tablat,w,c
  3282   00137E  0900               	iorlw	0
  3283   001380  A4D8               	btfss	status,2,c
  3284   001382  EFC5  F009         	goto	u251
  3285   001386  EFC7  F009         	goto	u250
  3286   00138A                     u251:
  3287   00138A  EFC8  F009         	goto	l1401
  3288   00138E                     u250:
  3289   00138E                     
  3290                           ;TAD_Matrix.c: 76:         idx = 0;
  3291   00138E  6A27               	clrf	_idx^0,c
  3292   001390                     l1401:
  3293                           
  3294                           ;TAD_Matrix.c: 78:     key = lista[idx];
  3295   001390  5027               	movf	_idx^0,w,c
  3296   001392  2417               	addwf	_lista^0,w,c
  3297   001394  6E42               	movwf	??_nextChar^0,c
  3298   001396  0E00               	movlw	0
  3299   001398  2018               	addwfc	(_lista+1)^0,w,c
  3300   00139A  6E43               	movwf	(??_nextChar+1)^0,c
  3301   00139C  C042  FFF6         	movff	??_nextChar,tblptrl
  3302   0013A0  C043  FFF7         	movff	??_nextChar+1,tblptrh
  3303   0013A4                     	if	0	;tblptru may be non-zero
  3304   0013A4                     	endif
  3305   0013A4                     	if	0	;tblptru may be non-zero
  3306   0013A4                     	endif
  3307   0013A4  0008               	tblrd		*
  3308   0013A6  CFF5 F028          	movff	tablat,_key
  3309   0013AA                     l334:
  3310   0013AA  0012               	return		;funcret
  3311   0013AC                     __end_of_nextChar:
  3312                           	callstack 0
  3313                           
  3314 ;; *************** function _keyPressed *****************
  3315 ;; Defined at:
  3316 ;;		line 51 in file "TAD_Matrix.c"
  3317 ;; Parameters:    Size  Location     Type
  3318 ;;		None
  3319 ;; Auto vars:     Size  Location     Type
  3320 ;;		None
  3321 ;; Return value:  Size  Location     Type
  3322 ;;                  1    wreg      unsigned char 
  3323 ;; Registers used:
  3324 ;;		wreg, status,2
  3325 ;; Tracked objects:
  3326 ;;		On entry : 0/0
  3327 ;;		On exit  : 0/0
  3328 ;;		Unchanged: 0/0
  3329 ;; Data sizes:     COMRAM   BANK0   BANK1
  3330 ;;      Params:         0       0       0
  3331 ;;      Locals:         1       0       0
  3332 ;;      Temps:          0       0       0
  3333 ;;      Totals:         1       0       0
  3334 ;;Total ram usage:        1 bytes
  3335 ;; Hardware stack levels used: 1
  3336 ;; Hardware stack levels required when called: 2
  3337 ;; This function calls:
  3338 ;;		Nothing
  3339 ;; This function is called by:
  3340 ;;		_motorMatrix
  3341 ;; This function uses a non-reentrant model
  3342 ;;
  3343                           
  3344                           	psect	text5
  3345   0014DE                     __ptext5:
  3346                           	callstack 0
  3347   0014DE                     _keyPressed:
  3348                           	callstack 27
  3349   0014DE                     
  3350                           ;TAD_Matrix.c: 52:     return (PORTBbits.RB0 == 0 || PORTBbits.RB1 == 0 || PORTBbits.RB2
      +                           == 0 || PORTBbits.RB3 == 0);
  3351   0014DE  0E01               	movlw	1
  3352   0014E0  6E42               	movwf	_keyPressed$1050^0,c
  3353   0014E2  A081               	btfss	129,0,c	;volatile
  3354   0014E4  EF76  F00A         	goto	u1421
  3355   0014E8  EF78  F00A         	goto	u1420
  3356   0014EC                     u1421:
  3357   0014EC  EF8E  F00A         	goto	l2261
  3358   0014F0                     u1420:
  3359   0014F0  A281               	btfss	129,1,c	;volatile
  3360   0014F2  EF7D  F00A         	goto	u1431
  3361   0014F6  EF7F  F00A         	goto	u1430
  3362   0014FA                     u1431:
  3363   0014FA  EF8E  F00A         	goto	l2261
  3364   0014FE                     u1430:
  3365   0014FE  A481               	btfss	129,2,c	;volatile
  3366   001500  EF84  F00A         	goto	u1441
  3367   001504  EF86  F00A         	goto	u1440
  3368   001508                     u1441:
  3369   001508  EF8E  F00A         	goto	l2261
  3370   00150C                     u1440:
  3371   00150C  A681               	btfss	129,3,c	;volatile
  3372   00150E  EF8B  F00A         	goto	u1451
  3373   001512  EF8D  F00A         	goto	u1450
  3374   001516                     u1451:
  3375   001516  EF8E  F00A         	goto	l2261
  3376   00151A                     u1450:
  3377   00151A  6A42               	clrf	_keyPressed$1050^0,c
  3378   00151C                     l2261:
  3379   00151C  5042               	movf	_keyPressed$1050^0,w,c
  3380   00151E  0012               	return		;funcret
  3381   001520                     __end_of_keyPressed:
  3382                           	callstack 0
  3383                           
  3384 ;; *************** function _getKey *****************
  3385 ;; Defined at:
  3386 ;;		line 55 in file "TAD_Matrix.c"
  3387 ;; Parameters:    Size  Location     Type
  3388 ;;		None
  3389 ;; Auto vars:     Size  Location     Type
  3390 ;;		None
  3391 ;; Return value:  Size  Location     Type
  3392 ;;                  1    wreg      void 
  3393 ;; Registers used:
  3394 ;;		wreg, status,2, status,0, tblptrl, tblptrh, tblptru, prodl, prodh
  3395 ;; Tracked objects:
  3396 ;;		On entry : 0/0
  3397 ;;		On exit  : 0/0
  3398 ;;		Unchanged: 0/0
  3399 ;; Data sizes:     COMRAM   BANK0   BANK1
  3400 ;;      Params:         0       0       0
  3401 ;;      Locals:         0       0       0
  3402 ;;      Temps:          6       0       0
  3403 ;;      Totals:         6       0       0
  3404 ;;Total ram usage:        6 bytes
  3405 ;; Hardware stack levels used: 1
  3406 ;; Hardware stack levels required when called: 2
  3407 ;; This function calls:
  3408 ;;		Nothing
  3409 ;; This function is called by:
  3410 ;;		_motorMatrix
  3411 ;; This function uses a non-reentrant model
  3412 ;;
  3413                           
  3414                           	psect	text6
  3415   001222                     __ptext6:
  3416                           	callstack 0
  3417   001222                     _getKey:
  3418                           	callstack 27
  3419   001222                     
  3420                           ;TAD_Matrix.c: 56:     if (PORTBbits.RB0 == 0) {
  3421   001222  B081               	btfsc	129,0,c	;volatile
  3422   001224  EF16  F009         	goto	u201
  3423   001228  EF18  F009         	goto	u200
  3424   00122C                     u201:
  3425   00122C  EF1B  F009         	goto	l323
  3426   001230                     u200:
  3427   001230                     
  3428                           ;TAD_Matrix.c: 57:         rows = 0;
  3429   001230  6A2E               	clrf	_rows^0,c
  3430                           
  3431                           ;TAD_Matrix.c: 58:     } else if (PORTBbits.RB1 == 0) {
  3432   001232  EF3C  F009         	goto	l1385
  3433   001236                     l323:
  3434   001236  B281               	btfsc	129,1,c	;volatile
  3435   001238  EF20  F009         	goto	u211
  3436   00123C  EF22  F009         	goto	u210
  3437   001240                     u211:
  3438   001240  EF26  F009         	goto	l325
  3439   001244                     u210:
  3440   001244                     
  3441                           ;TAD_Matrix.c: 59:         rows = 1;
  3442   001244  0E01               	movlw	1
  3443   001246  6E2E               	movwf	_rows^0,c
  3444                           
  3445                           ;TAD_Matrix.c: 60:     } else if (PORTBbits.RB2 == 0) {
  3446   001248  EF3C  F009         	goto	l1385
  3447   00124C                     l325:
  3448   00124C  B481               	btfsc	129,2,c	;volatile
  3449   00124E  EF2B  F009         	goto	u221
  3450   001252  EF2D  F009         	goto	u220
  3451   001256                     u221:
  3452   001256  EF31  F009         	goto	l327
  3453   00125A                     u220:
  3454   00125A                     
  3455                           ;TAD_Matrix.c: 61:         rows = 2;
  3456   00125A  0E02               	movlw	2
  3457   00125C  6E2E               	movwf	_rows^0,c
  3458                           
  3459                           ;TAD_Matrix.c: 62:     } else if (PORTBbits.RB3 == 0) {
  3460   00125E  EF3C  F009         	goto	l1385
  3461   001262                     l327:
  3462   001262  B681               	btfsc	129,3,c	;volatile
  3463   001264  EF36  F009         	goto	u231
  3464   001268  EF38  F009         	goto	u230
  3465   00126C                     u231:
  3466   00126C  EF3C  F009         	goto	l326
  3467   001270                     u230:
  3468   001270                     
  3469                           ;TAD_Matrix.c: 63:         rows = 3;
  3470   001270  0E03               	movlw	3
  3471   001272  6E2E               	movwf	_rows^0,c
  3472   001274  EF3C  F009         	goto	l1385
  3473   001278                     l326:
  3474   001278                     l1385:
  3475                           
  3476                           ;TAD_Matrix.c: 65:     lista = teclas[columns][rows];
  3477   001278  502E               	movf	_rows^0,w,c
  3478   00127A  0D02               	mullw	2
  3479   00127C  CFF3 F042          	movff	prodl,??_getKey
  3480   001280  CFF4 F043          	movff	prodh,??_getKey+1
  3481   001284  502D               	movf	_columns^0,w,c
  3482   001286  0D08               	mullw	8
  3483   001288  0E55               	movlw	low _teclas
  3484   00128A  24F3               	addwf	243,w,c
  3485   00128C  6E44               	movwf	(??_getKey+2)^0,c
  3486   00128E  0E1E               	movlw	high _teclas
  3487   001290  20F4               	addwfc	prodh,w,c
  3488   001292  6E45               	movwf	(??_getKey+3)^0,c
  3489   001294  5042               	movf	??_getKey^0,w,c
  3490   001296  2444               	addwf	(??_getKey+2)^0,w,c
  3491   001298  6E46               	movwf	(??_getKey+4)^0,c
  3492   00129A  5043               	movf	(??_getKey+1)^0,w,c
  3493   00129C  2045               	addwfc	(??_getKey+3)^0,w,c
  3494   00129E  6E47               	movwf	(??_getKey+5)^0,c
  3495   0012A0  C046  FFF6         	movff	??_getKey+4,tblptrl
  3496   0012A4  C047  FFF7         	movff	??_getKey+5,tblptrh
  3497   0012A8                     	if	0	;tblptru may be non-zero
  3498   0012A8                     	endif
  3499   0012A8                     	if	0	;tblptru may be non-zero
  3500   0012A8                     	endif
  3501   0012A8  0009               	tblrd		*+
  3502   0012AA  CFF5 F017          	movff	tablat,_lista
  3503   0012AE  000A               	tblrd		*-
  3504   0012B0  CFF5 F018          	movff	tablat,_lista+1
  3505   0012B4                     
  3506                           ;TAD_Matrix.c: 66:     idx = 0;
  3507   0012B4  6A27               	clrf	_idx^0,c
  3508   0012B6                     
  3509                           ;TAD_Matrix.c: 67:     key = lista[idx];
  3510   0012B6  5027               	movf	_idx^0,w,c
  3511   0012B8  2417               	addwf	_lista^0,w,c
  3512   0012BA  6E42               	movwf	??_getKey^0,c
  3513   0012BC  0E00               	movlw	0
  3514   0012BE  2018               	addwfc	(_lista+1)^0,w,c
  3515   0012C0  6E43               	movwf	(??_getKey+1)^0,c
  3516   0012C2  C042  FFF6         	movff	??_getKey,tblptrl
  3517   0012C6  C043  FFF7         	movff	??_getKey+1,tblptrh
  3518   0012CA                     	if	0	;tblptru may be non-zero
  3519   0012CA                     	endif
  3520   0012CA                     	if	0	;tblptru may be non-zero
  3521   0012CA                     	endif
  3522   0012CA  0008               	tblrd		*
  3523   0012CC  CFF5 F028          	movff	tablat,_key
  3524   0012D0  0012               	return		;funcret
  3525   0012D2                     __end_of_getKey:
  3526                           	callstack 0
  3527                           
  3528 ;; *************** function _motorLEDs *****************
  3529 ;; Defined at:
  3530 ;;		line 38 in file "TAD_LEDS.c"
  3531 ;; Parameters:    Size  Location     Type
  3532 ;;		None
  3533 ;; Auto vars:     Size  Location     Type
  3534 ;;		None
  3535 ;; Return value:  Size  Location     Type
  3536 ;;                  1    wreg      void 
  3537 ;; Registers used:
  3538 ;;		wreg, fsr2l, fsr2h, status,2, status,0, prodl, prodh, cstack
  3539 ;; Tracked objects:
  3540 ;;		On entry : 0/0
  3541 ;;		On exit  : 0/0
  3542 ;;		Unchanged: 0/0
  3543 ;; Data sizes:     COMRAM   BANK0   BANK1
  3544 ;;      Params:         0       0       0
  3545 ;;      Locals:         0       0       0
  3546 ;;      Temps:          1       0       0
  3547 ;;      Totals:         1       0       0
  3548 ;;Total ram usage:        1 bytes
  3549 ;; Hardware stack levels used: 1
  3550 ;; Hardware stack levels required when called: 3
  3551 ;; This function calls:
  3552 ;;		_TI_GetTics
  3553 ;;		_TI_ResetTics
  3554 ;; This function is called by:
  3555 ;;		_main
  3556 ;; This function uses a non-reentrant model
  3557 ;;
  3558                           
  3559                           	psect	text7
  3560   000F8E                     __ptext7:
  3561                           	callstack 0
  3562   000F8E                     _motorLEDs:
  3563                           	callstack 27
  3564   000F8E                     
  3565                           ;TAD_LEDS.c: 39:     static unsigned char state = 0;;TAD_LEDS.c: 40:     static unsigned
      +                           char pwmStep = 0;;TAD_LEDS.c: 41:     static unsigned char duty = 0;;TAD_LEDS.c: 43:   
      +                            switch (state) {
  3566   000F8E  EF3D  F008         	goto	l2927
  3567   000F92                     l248:
  3568                           
  3569                           ;TAD_LEDS.c: 45:             LATCbits.LATC2 = 0;
  3570   000F92  948B               	bcf	139,2,c	;volatile
  3571   000F94                     
  3572                           ;TAD_LEDS.c: 46:             if (flag == 1) {
  3573   000F94  0432               	decf	_flag^0,w,c
  3574   000F96  A4D8               	btfss	status,2,c
  3575   000F98  EFD0  F007         	goto	u2341
  3576   000F9C  EFD2  F007         	goto	u2340
  3577   000FA0                     u2341:
  3578   000FA0  EF48  F008         	goto	l258
  3579   000FA4                     u2340:
  3580   000FA4                     
  3581                           ;TAD_LEDS.c: 47:                 pwmStep = 0;
  3582   000FA4  6A30               	clrf	motorLEDs@pwmStep^0,c
  3583                           
  3584                           ;TAD_LEDS.c: 48:                 duty = 0;
  3585   000FA6  6A2F               	clrf	motorLEDs@duty^0,c
  3586   000FA8                     
  3587                           ;TAD_LEDS.c: 49:                 TI_ResetTics(timerPWM);
  3588   000FA8  503F               	movf	_timerPWM^0,w,c
  3589   000FAA  EC04  F00B         	call	_TI_ResetTics
  3590                           
  3591                           ;TAD_LEDS.c: 50:                 TI_ResetTics(timerRamp);
  3592   000FAE  503E               	movf	_timerRamp^0,w,c
  3593   000FB0  EC04  F00B         	call	_TI_ResetTics
  3594   000FB4                     
  3595                           ;TAD_LEDS.c: 51:                 state = 1;
  3596   000FB4  0E01               	movlw	1
  3597   000FB6  6E31               	movwf	motorLEDs@state^0,c
  3598   000FB8  EF48  F008         	goto	l258
  3599   000FBC                     l2901:
  3600                           
  3601                           ;TAD_LEDS.c: 55:             if (flag == 0) {
  3602   000FBC  5032               	movf	_flag^0,w,c
  3603   000FBE  A4D8               	btfss	status,2,c
  3604   000FC0  EFE4  F007         	goto	u2351
  3605   000FC4  EFE6  F007         	goto	u2350
  3606   000FC8                     u2351:
  3607   000FC8  EFEA  F007         	goto	l2905
  3608   000FCC                     u2350:
  3609   000FCC                     
  3610                           ;TAD_LEDS.c: 56:                 state = 0;
  3611   000FCC  6A31               	clrf	motorLEDs@state^0,c
  3612                           
  3613                           ;TAD_LEDS.c: 57:                 LATCbits.LATC2 = 0;
  3614   000FCE  948B               	bcf	139,2,c	;volatile
  3615                           
  3616                           ;TAD_LEDS.c: 58:                 break;
  3617   000FD0  EF48  F008         	goto	l258
  3618   000FD4                     l2905:
  3619                           
  3620                           ;TAD_LEDS.c: 60:             if (TI_GetTics(timerPWM) >= 1) {
  3621   000FD4  503F               	movf	_timerPWM^0,w,c
  3622   000FD6  EC01  F00A         	call	_TI_GetTics
  3623   000FDA  5042               	movf	?_TI_GetTics^0,w,c
  3624   000FDC  1043               	iorwf	(?_TI_GetTics+1)^0,w,c
  3625   000FDE  1044               	iorwf	(?_TI_GetTics+2)^0,w,c
  3626   000FE0  1045               	iorwf	(?_TI_GetTics+3)^0,w,c
  3627   000FE2  B4D8               	btfsc	status,2,c
  3628   000FE4  EFF6  F007         	goto	u2361
  3629   000FE8  EFF8  F007         	goto	u2360
  3630   000FEC                     u2361:
  3631   000FEC  EF18  F008         	goto	l2917
  3632   000FF0                     u2360:
  3633   000FF0                     
  3634                           ;TAD_LEDS.c: 61:                 TI_ResetTics(timerPWM);
  3635   000FF0  503F               	movf	_timerPWM^0,w,c
  3636   000FF2  EC04  F00B         	call	_TI_ResetTics
  3637   000FF6                     
  3638                           ;TAD_LEDS.c: 62:                 pwmStep++;
  3639   000FF6  2A30               	incf	motorLEDs@pwmStep^0,f,c
  3640   000FF8                     
  3641                           ;TAD_LEDS.c: 63:                 if (pwmStep >= 10) {
  3642   000FF8  0E09               	movlw	9
  3643   000FFA  6430               	cpfsgt	motorLEDs@pwmStep^0,c
  3644   000FFC  EF02  F008         	goto	u2371
  3645   001000  EF04  F008         	goto	u2370
  3646   001004                     u2371:
  3647   001004  EF05  F008         	goto	l2915
  3648   001008                     u2370:
  3649   001008                     
  3650                           ;TAD_LEDS.c: 64:                     pwmStep = 0;
  3651   001008  6A30               	clrf	motorLEDs@pwmStep^0,c
  3652   00100A                     l2915:
  3653                           
  3654                           ;TAD_LEDS.c: 66:                 LATCbits.LATC2 = (pwmStep < duty) ? 1 : 0;
  3655   00100A  502F               	movf	motorLEDs@duty^0,w,c
  3656   00100C  5C30               	subwf	motorLEDs@pwmStep^0,w,c
  3657   00100E  A0D8               	btfss	status,0,c
  3658   001010  EF0C  F008         	goto	u2381
  3659   001014  EF10  F008         	goto	u2380
  3660   001018                     u2381:
  3661   001018  6A4F               	clrf	??_motorLEDs^0,c
  3662   00101A  2A4F               	incf	??_motorLEDs^0,f,c
  3663   00101C  EF11  F008         	goto	u2398
  3664   001020                     u2380:
  3665   001020  6A4F               	clrf	??_motorLEDs^0,c
  3666   001022                     u2398:
  3667   001022  464F               	rlncf	??_motorLEDs^0,f,c
  3668   001024  464F               	rlncf	??_motorLEDs^0,f,c
  3669   001026  508B               	movf	139,w,c	;volatile
  3670   001028  184F               	xorwf	??_motorLEDs^0,w,c
  3671   00102A  0BFB               	andlw	-5
  3672   00102C  184F               	xorwf	??_motorLEDs^0,w,c
  3673   00102E  6E8B               	movwf	139,c	;volatile
  3674   001030                     l2917:
  3675                           
  3676                           ;TAD_LEDS.c: 68:             if (TI_GetTics(timerRamp) >= 6000) {
  3677   001030  503E               	movf	_timerRamp^0,w,c
  3678   001032  EC01  F00A         	call	_TI_GetTics
  3679   001036  5045               	movf	(?_TI_GetTics+3)^0,w,c
  3680   001038  1044               	iorwf	(?_TI_GetTics+2)^0,w,c
  3681   00103A  E10B               	bnz	u2400
  3682   00103C  0E70               	movlw	112
  3683   00103E  5C42               	subwf	?_TI_GetTics^0,w,c
  3684   001040  0E17               	movlw	23
  3685   001042  5843               	subwfb	(?_TI_GetTics+1)^0,w,c
  3686   001044  A0D8               	btfss	status,0,c
  3687   001046  EF27  F008         	goto	u2401
  3688   00104A  EF29  F008         	goto	u2400
  3689   00104E                     u2401:
  3690   00104E  EF48  F008         	goto	l258
  3691   001052                     u2400:
  3692   001052                     
  3693                           ;TAD_LEDS.c: 69:                 TI_ResetTics(timerRamp);
  3694   001052  503E               	movf	_timerRamp^0,w,c
  3695   001054  EC04  F00B         	call	_TI_ResetTics
  3696   001058                     
  3697                           ;TAD_LEDS.c: 70:                 if (duty < 10) {
  3698   001058  0E0A               	movlw	10
  3699   00105A  602F               	cpfslt	motorLEDs@duty^0,c
  3700   00105C  EF32  F008         	goto	u2411
  3701   001060  EF34  F008         	goto	u2410
  3702   001064                     u2411:
  3703   001064  EF37  F008         	goto	l256
  3704   001068                     u2410:
  3705   001068                     
  3706                           ;TAD_LEDS.c: 71:                     duty++;
  3707   001068  2A2F               	incf	motorLEDs@duty^0,f,c
  3708                           
  3709                           ;TAD_LEDS.c: 72:                 } else {
  3710   00106A  EF48  F008         	goto	l258
  3711   00106E                     l256:
  3712                           
  3713                           ;TAD_LEDS.c: 73:                     LATCbits.LATC2 = 0;
  3714   00106E  948B               	bcf	139,2,c	;volatile
  3715                           
  3716                           ;TAD_LEDS.c: 74:                     duty = 0;
  3717   001070  6A2F               	clrf	motorLEDs@duty^0,c
  3718                           
  3719                           ;TAD_LEDS.c: 75:                     flag = 0;
  3720   001072  6A32               	clrf	_flag^0,c
  3721                           
  3722                           ;TAD_LEDS.c: 76:                     state = 0;
  3723   001074  6A31               	clrf	motorLEDs@state^0,c
  3724   001076  EF48  F008         	goto	l258
  3725   00107A                     l2927:
  3726   00107A  5031               	movf	motorLEDs@state^0,w,c
  3727                           
  3728                           ; Switch size 1, requested type "simple"
  3729                           ; Number of cases is 2, Range of values is 0 to 1
  3730                           ; switch strategies available:
  3731                           ; Name         Instructions Cycles
  3732                           ; simple_byte            7     4 (average)
  3733                           ;	Chosen strategy is simple_byte
  3734   00107C  0A00               	xorlw	0	; case 0
  3735   00107E  B4D8               	btfsc	status,2,c
  3736   001080  EFC9  F007         	goto	l248
  3737   001084  0A01               	xorlw	1	; case 1
  3738   001086  B4D8               	btfsc	status,2,c
  3739   001088  EFDE  F007         	goto	l2901
  3740   00108C  EF48  F008         	goto	l258
  3741   001090                     l258:
  3742   001090  0012               	return		;funcret
  3743   001092                     __end_of_motorLEDs:
  3744                           	callstack 0
  3745                           
  3746 ;; *************** function _motorHall *****************
  3747 ;; Defined at:
  3748 ;;		line 23 in file "TAD_Hall.c"
  3749 ;; Parameters:    Size  Location     Type
  3750 ;;		None
  3751 ;; Auto vars:     Size  Location     Type
  3752 ;;		None
  3753 ;; Return value:  Size  Location     Type
  3754 ;;                  1    wreg      void 
  3755 ;; Registers used:
  3756 ;;		wreg, status,2, status,0
  3757 ;; Tracked objects:
  3758 ;;		On entry : 0/0
  3759 ;;		On exit  : 0/0
  3760 ;;		Unchanged: 0/0
  3761 ;; Data sizes:     COMRAM   BANK0   BANK1
  3762 ;;      Params:         0       0       0
  3763 ;;      Locals:         0       0       0
  3764 ;;      Temps:          0       0       0
  3765 ;;      Totals:         0       0       0
  3766 ;;Total ram usage:        0 bytes
  3767 ;; Hardware stack levels used: 1
  3768 ;; Hardware stack levels required when called: 2
  3769 ;; This function calls:
  3770 ;;		Nothing
  3771 ;; This function is called by:
  3772 ;;		_main
  3773 ;; This function uses a non-reentrant model
  3774 ;;
  3775                           
  3776                           	psect	text8
  3777   00144E                     __ptext8:
  3778                           	callstack 0
  3779   00144E                     _motorHall:
  3780                           	callstack 28
  3781   00144E                     
  3782                           ;TAD_Hall.c: 24:     static unsigned char state = 0;;TAD_Hall.c: 26:     switch (state) 
      +                          {
  3783   00144E  EF40  F00A         	goto	l2041
  3784   001452                     l201:
  3785                           
  3786                           ;TAD_Hall.c: 28:             if (PORTBbits.RB4 == 1) {
  3787   001452  A881               	btfss	129,4,c	;volatile
  3788   001454  EF2E  F00A         	goto	u1081
  3789   001458  EF30  F00A         	goto	u1080
  3790   00145C                     u1081:
  3791   00145C  EF4B  F00A         	goto	l206
  3792   001460                     u1080:
  3793   001460                     
  3794                           ;TAD_Hall.c: 29:                 hallEvent = 1;
  3795   001460  0E01               	movlw	1
  3796   001462  6E34               	movwf	_hallEvent^0,c
  3797                           
  3798                           ;TAD_Hall.c: 30:                 state = 1;
  3799   001464  0E01               	movlw	1
  3800   001466  6E33               	movwf	motorHall@state^0,c
  3801   001468  EF4B  F00A         	goto	l206
  3802   00146C                     l204:
  3803                           
  3804                           ;TAD_Hall.c: 34:             if (PORTBbits.RB4 == 0) {
  3805   00146C  B881               	btfsc	129,4,c	;volatile
  3806   00146E  EF3B  F00A         	goto	u1091
  3807   001472  EF3D  F00A         	goto	u1090
  3808   001476                     u1091:
  3809   001476  EF4B  F00A         	goto	l206
  3810   00147A                     u1090:
  3811   00147A                     
  3812                           ;TAD_Hall.c: 35:                 state = 0;
  3813   00147A  6A33               	clrf	motorHall@state^0,c
  3814   00147C  EF4B  F00A         	goto	l206
  3815   001480                     l2041:
  3816   001480  5033               	movf	motorHall@state^0,w,c
  3817                           
  3818                           ; Switch size 1, requested type "simple"
  3819                           ; Number of cases is 2, Range of values is 0 to 1
  3820                           ; switch strategies available:
  3821                           ; Name         Instructions Cycles
  3822                           ; simple_byte            7     4 (average)
  3823                           ;	Chosen strategy is simple_byte
  3824   001482  0A00               	xorlw	0	; case 0
  3825   001484  B4D8               	btfsc	status,2,c
  3826   001486  EF29  F00A         	goto	l201
  3827   00148A  0A01               	xorlw	1	; case 1
  3828   00148C  B4D8               	btfsc	status,2,c
  3829   00148E  EF36  F00A         	goto	l204
  3830   001492  EF4B  F00A         	goto	l206
  3831   001496                     l206:
  3832   001496  0012               	return		;funcret
  3833   001498                     __end_of_motorHall:
  3834                           	callstack 0
  3835                           
  3836 ;; *************** function _motorController *****************
  3837 ;; Defined at:
  3838 ;;		line 37 in file "TAD_Controller.c"
  3839 ;; Parameters:    Size  Location     Type
  3840 ;;		None
  3841 ;; Auto vars:     Size  Location     Type
  3842 ;;  c               1   16[COMRAM] unsigned char 
  3843 ;;  c               1   15[COMRAM] unsigned char 
  3844 ;; Return value:  Size  Location     Type
  3845 ;;                  1    wreg      void 
  3846 ;; Registers used:
  3847 ;;		wreg, fsr1l, fsr1h, fsr2l, fsr2h, status,2, status,0, tblptrl, tblptrh, tblptru, prodl, prodh, cstack
  3848 ;; Tracked objects:
  3849 ;;		On entry : 0/0
  3850 ;;		On exit  : 0/0
  3851 ;;		Unchanged: 0/0
  3852 ;; Data sizes:     COMRAM   BANK0   BANK1
  3853 ;;      Params:         0       0       0
  3854 ;;      Locals:         2       0       0
  3855 ;;      Temps:          2       0       0
  3856 ;;      Totals:         4       0       0
  3857 ;;Total ram usage:        4 bytes
  3858 ;; Hardware stack levels used: 1
  3859 ;; Hardware stack levels required when called: 4
  3860 ;; This function calls:
  3861 ;;		_SIO_CharAvail
  3862 ;;		_SIO_GetChar
  3863 ;;		_SIO_SendChar
  3864 ;;		_SIO_TxAvail
  3865 ;;		_TI_GetTics
  3866 ;;		_TI_ResetTics
  3867 ;;		_getButton
  3868 ;;		_getHall
  3869 ;;		_getPassword
  3870 ;;		_passwordSet
  3871 ;;		_setAlarm
  3872 ;;		_setIntensity
  3873 ;;		_setMatrix
  3874 ;;		_setOK
  3875 ;;		_setSpeaker
  3876 ;;		_setStop
  3877 ;;		_speaker_sound
  3878 ;; This function is called by:
  3879 ;;		_main
  3880 ;; This function uses a non-reentrant model
  3881 ;;
  3882                           
  3883                           	psect	text9
  3884   000024                     __ptext9:
  3885                           	callstack 0
  3886   000024                     _motorController:
  3887                           	callstack 26
  3888   000024                     
  3889                           ;TAD_Controller.c: 38:     static unsigned char state = 0;;TAD_Controller.c: 40:     swi
      +                          tch (state) {
  3890   000024  EF36  F005         	goto	l2713
  3891   000028                     l2325:
  3892                           
  3893                           ;TAD_Controller.c: 42:             uid_ptr = "> LSBank - New Day!\r\n";
  3894   000028  0EB5               	movlw	low STR_13
  3895   00002A  6E15               	movwf	_uid_ptr^0,c
  3896   00002C  0E1F               	movlw	high STR_13
  3897   00002E  6E16               	movwf	(_uid_ptr+1)^0,c
  3898   000030                     
  3899                           ;TAD_Controller.c: 43:             i = 0;
  3900   000030  6A1F               	clrf	_i^0,c
  3901   000032                     
  3902                           ;TAD_Controller.c: 44:             state = 1;
  3903   000032  0E01               	movlw	1
  3904   000034  6E19               	movwf	motorController@state^0,c
  3905   000036                     
  3906                           ;TAD_Controller.c: 45:             setOK(1);
  3907   000036  0E01               	movlw	1
  3908   000038  ECF2  F00A         	call	_setOK
  3909   00003C                     
  3910                           ;TAD_Controller.c: 46:             setAlarm(0);
  3911   00003C  0E00               	movlw	0
  3912   00003E  ECCC  F00A         	call	_setAlarm
  3913                           
  3914                           ;TAD_Controller.c: 47:             break;
  3915   000042  EFA5  F005         	goto	l589
  3916   000046                     l2335:
  3917                           
  3918                           ;TAD_Controller.c: 49:             if (SIO_TxAvail()) {
  3919   000046  EC5E  F00B         	call	_SIO_TxAvail	;wreg free
  3920   00004A  0900               	iorlw	0
  3921   00004C  B4D8               	btfsc	status,2,c
  3922   00004E  EF2B  F000         	goto	u1471
  3923   000052  EF2D  F000         	goto	u1470
  3924   000056                     u1471:
  3925   000056  EFA5  F005         	goto	l589
  3926   00005A                     u1470:
  3927   00005A                     
  3928                           ;TAD_Controller.c: 50:                 if (uid_ptr[i] != '\0') {
  3929   00005A  501F               	movf	_i^0,w,c
  3930   00005C  2415               	addwf	_uid_ptr^0,w,c
  3931   00005E  6E4F               	movwf	??_motorController^0,c
  3932   000060  0E00               	movlw	0
  3933   000062  2016               	addwfc	(_uid_ptr+1)^0,w,c
  3934   000064  6E50               	movwf	(??_motorController+1)^0,c
  3935   000066  C04F  FFF6         	movff	??_motorController,tblptrl
  3936   00006A  C050  FFF7         	movff	??_motorController+1,tblptrh
  3937   00006E                     	if	0	;tblptru may be non-zero
  3938   00006E                     	endif
  3939   00006E                     	if	0	;tblptru may be non-zero
  3940   00006E                     	endif
  3941   00006E  0008               	tblrd		*
  3942   000070  50F5               	movf	tablat,w,c
  3943   000072  0900               	iorlw	0
  3944   000074  B4D8               	btfsc	status,2,c
  3945   000076  EF3F  F000         	goto	u1481
  3946   00007A  EF41  F000         	goto	u1480
  3947   00007E                     u1481:
  3948   00007E  EF52  F000         	goto	l494
  3949   000082                     u1480:
  3950   000082                     
  3951                           ;TAD_Controller.c: 51:                     SIO_SendChar(uid_ptr[i]);
  3952   000082  501F               	movf	_i^0,w,c
  3953   000084  2415               	addwf	_uid_ptr^0,w,c
  3954   000086  6E4F               	movwf	??_motorController^0,c
  3955   000088  0E00               	movlw	0
  3956   00008A  2016               	addwfc	(_uid_ptr+1)^0,w,c
  3957   00008C  6E50               	movwf	(??_motorController+1)^0,c
  3958   00008E  C04F  FFF6         	movff	??_motorController,tblptrl
  3959   000092  C050  FFF7         	movff	??_motorController+1,tblptrh
  3960   000096                     	if	0	;tblptru may be non-zero
  3961   000096                     	endif
  3962   000096                     	if	0	;tblptru may be non-zero
  3963   000096                     	endif
  3964   000096  0008               	tblrd		*
  3965   000098  50F5               	movf	tablat,w,c
  3966   00009A  EC7D  F00B         	call	_SIO_SendChar
  3967   00009E                     l2341:
  3968                           
  3969                           ;TAD_Controller.c: 52:                     i++;
  3970   00009E  2A1F               	incf	_i^0,f,c
  3971                           
  3972                           ;TAD_Controller.c: 53:                 } else {
  3973   0000A0  EFA5  F005         	goto	l589
  3974   0000A4                     l494:
  3975                           
  3976                           ;TAD_Controller.c: 54:                     i = 0;
  3977   0000A4  6A1F               	clrf	_i^0,c
  3978   0000A6                     
  3979                           ;TAD_Controller.c: 55:                     state = 2;
  3980   0000A6  0E02               	movlw	2
  3981   0000A8  6E19               	movwf	motorController@state^0,c
  3982   0000AA  EFA5  F005         	goto	l589
  3983   0000AE                     l2345:
  3984                           
  3985                           ;TAD_Controller.c: 60:             if (getHall() == 1) {
  3986   0000AE  EC73  F00B         	call	_getHall	;wreg free
  3987   0000B2  06E8               	decf	wreg,f,c
  3988   0000B4  A4D8               	btfss	status,2,c
  3989   0000B6  EF5F  F000         	goto	u1491
  3990   0000BA  EF61  F000         	goto	u1490
  3991   0000BE                     u1491:
  3992   0000BE  EFA5  F005         	goto	l589
  3993   0000C2                     u1490:
  3994   0000C2                     
  3995                           ;TAD_Controller.c: 61:                 speaker_sound(1, 200);
  3996   0000C2  0E00               	movlw	0
  3997   0000C4  6E44               	movwf	(speaker_sound@duracion_ms+1)^0,c
  3998   0000C6  0EC8               	movlw	200
  3999   0000C8  6E43               	movwf	speaker_sound@duracion_ms^0,c
  4000   0000CA  0E01               	movlw	1
  4001   0000CC  EC69  F009         	call	_speaker_sound
  4002   0000D0                     
  4003                           ;TAD_Controller.c: 62:                 uid_ptr = "> LSBank - Open exterior door\r\n";
  4004   0000D0  0ECF               	movlw	low STR_14
  4005   0000D2  6E15               	movwf	_uid_ptr^0,c
  4006   0000D4  0E1E               	movlw	high STR_14
  4007   0000D6  6E16               	movwf	(_uid_ptr+1)^0,c
  4008   0000D8                     
  4009                           ;TAD_Controller.c: 63:                 i = 0;
  4010   0000D8  6A1F               	clrf	_i^0,c
  4011   0000DA                     
  4012                           ;TAD_Controller.c: 64:                 state = 3;
  4013   0000DA  0E03               	movlw	3
  4014   0000DC  6E19               	movwf	motorController@state^0,c
  4015   0000DE  EFA5  F005         	goto	l589
  4016   0000E2                     l2355:
  4017                           
  4018                           ;TAD_Controller.c: 68:             if (SIO_TxAvail()) {
  4019   0000E2  EC5E  F00B         	call	_SIO_TxAvail	;wreg free
  4020   0000E6  0900               	iorlw	0
  4021   0000E8  B4D8               	btfsc	status,2,c
  4022   0000EA  EF79  F000         	goto	u1501
  4023   0000EE  EF7B  F000         	goto	u1500
  4024   0000F2                     u1501:
  4025   0000F2  EFA5  F005         	goto	l589
  4026   0000F6                     u1500:
  4027   0000F6                     
  4028                           ;TAD_Controller.c: 69:                 if (uid_ptr[i] != '\0') {
  4029   0000F6  501F               	movf	_i^0,w,c
  4030   0000F8  2415               	addwf	_uid_ptr^0,w,c
  4031   0000FA  6E4F               	movwf	??_motorController^0,c
  4032   0000FC  0E00               	movlw	0
  4033   0000FE  2016               	addwfc	(_uid_ptr+1)^0,w,c
  4034   000100  6E50               	movwf	(??_motorController+1)^0,c
  4035   000102  C04F  FFF6         	movff	??_motorController,tblptrl
  4036   000106  C050  FFF7         	movff	??_motorController+1,tblptrh
  4037   00010A                     	if	0	;tblptru may be non-zero
  4038   00010A                     	endif
  4039   00010A                     	if	0	;tblptru may be non-zero
  4040   00010A                     	endif
  4041   00010A  0008               	tblrd		*
  4042   00010C  50F5               	movf	tablat,w,c
  4043   00010E  0900               	iorlw	0
  4044   000110  B4D8               	btfsc	status,2,c
  4045   000112  EF8D  F000         	goto	u1511
  4046   000116  EF8F  F000         	goto	u1510
  4047   00011A                     u1511:
  4048   00011A  EF9F  F000         	goto	l500
  4049   00011E                     u1510:
  4050   00011E                     
  4051                           ;TAD_Controller.c: 70:                     SIO_SendChar(uid_ptr[i]);
  4052   00011E  501F               	movf	_i^0,w,c
  4053   000120  2415               	addwf	_uid_ptr^0,w,c
  4054   000122  6E4F               	movwf	??_motorController^0,c
  4055   000124  0E00               	movlw	0
  4056   000126  2016               	addwfc	(_uid_ptr+1)^0,w,c
  4057   000128  6E50               	movwf	(??_motorController+1)^0,c
  4058   00012A  C04F  FFF6         	movff	??_motorController,tblptrl
  4059   00012E  C050  FFF7         	movff	??_motorController+1,tblptrh
  4060   000132                     	if	0	;tblptru may be non-zero
  4061   000132                     	endif
  4062   000132                     	if	0	;tblptru may be non-zero
  4063   000132                     	endif
  4064   000132  0008               	tblrd		*
  4065   000134  50F5               	movf	tablat,w,c
  4066   000136  EC7D  F00B         	call	_SIO_SendChar
  4067   00013A  EF4F  F000         	goto	l2341
  4068   00013E                     l500:
  4069                           
  4070                           ;TAD_Controller.c: 73:                     i = 0;
  4071   00013E  6A1F               	clrf	_i^0,c
  4072   000140                     
  4073                           ;TAD_Controller.c: 74:                     TI_ResetTics(timerHandle);
  4074   000140  503A               	movf	_timerHandle@TAD_Controller$F1167^0,w,c
  4075   000142  EC04  F00B         	call	_TI_ResetTics
  4076   000146                     
  4077                           ;TAD_Controller.c: 75:                     state = 4;
  4078   000146  0E04               	movlw	4
  4079   000148  6E19               	movwf	motorController@state^0,c
  4080   00014A  EFA5  F005         	goto	l589
  4081   00014E                     l2367:
  4082                           
  4083                           ;TAD_Controller.c: 80:             if (TI_GetTics(timerHandle) >= 1000) {
  4084   00014E  503A               	movf	_timerHandle@TAD_Controller$F1167^0,w,c
  4085   000150  EC01  F00A         	call	_TI_GetTics
  4086   000154  5045               	movf	(?_TI_GetTics+3)^0,w,c
  4087   000156  1044               	iorwf	(?_TI_GetTics+2)^0,w,c
  4088   000158  E10B               	bnz	u1520
  4089   00015A  0EE8               	movlw	232
  4090   00015C  5C42               	subwf	?_TI_GetTics^0,w,c
  4091   00015E  0E03               	movlw	3
  4092   000160  5843               	subwfb	(?_TI_GetTics+1)^0,w,c
  4093   000162  A0D8               	btfss	status,0,c
  4094   000164  EFB6  F000         	goto	u1521
  4095   000168  EFB8  F000         	goto	u1520
  4096   00016C                     u1521:
  4097   00016C  EFA5  F005         	goto	l589
  4098   000170                     u1520:
  4099   000170                     
  4100                           ;TAD_Controller.c: 81:                 uid_ptr = "> LSBank - Close exterior door\r\n";
  4101   000170  0E8E               	movlw	low STR_15
  4102   000172  6E15               	movwf	_uid_ptr^0,c
  4103   000174  0E1E               	movlw	high STR_15
  4104   000176  6E16               	movwf	(_uid_ptr+1)^0,c
  4105   000178                     
  4106                           ;TAD_Controller.c: 82:                 i = 0;
  4107   000178  6A1F               	clrf	_i^0,c
  4108   00017A                     
  4109                           ;TAD_Controller.c: 83:                 state = 5;
  4110   00017A  0E05               	movlw	5
  4111   00017C  6E19               	movwf	motorController@state^0,c
  4112   00017E  EFA5  F005         	goto	l589
  4113   000182                     l2375:
  4114                           
  4115                           ;TAD_Controller.c: 87:             if (SIO_TxAvail()) {
  4116   000182  EC5E  F00B         	call	_SIO_TxAvail	;wreg free
  4117   000186  0900               	iorlw	0
  4118   000188  B4D8               	btfsc	status,2,c
  4119   00018A  EFC9  F000         	goto	u1531
  4120   00018E  EFCB  F000         	goto	u1530
  4121   000192                     u1531:
  4122   000192  EFA5  F005         	goto	l589
  4123   000196                     u1530:
  4124   000196                     
  4125                           ;TAD_Controller.c: 88:                 if (uid_ptr[i] != '\0') {
  4126   000196  501F               	movf	_i^0,w,c
  4127   000198  2415               	addwf	_uid_ptr^0,w,c
  4128   00019A  6E4F               	movwf	??_motorController^0,c
  4129   00019C  0E00               	movlw	0
  4130   00019E  2016               	addwfc	(_uid_ptr+1)^0,w,c
  4131   0001A0  6E50               	movwf	(??_motorController+1)^0,c
  4132   0001A2  C04F  FFF6         	movff	??_motorController,tblptrl
  4133   0001A6  C050  FFF7         	movff	??_motorController+1,tblptrh
  4134   0001AA                     	if	0	;tblptru may be non-zero
  4135   0001AA                     	endif
  4136   0001AA                     	if	0	;tblptru may be non-zero
  4137   0001AA                     	endif
  4138   0001AA  0008               	tblrd		*
  4139   0001AC  50F5               	movf	tablat,w,c
  4140   0001AE  0900               	iorlw	0
  4141   0001B0  B4D8               	btfsc	status,2,c
  4142   0001B2  EFDD  F000         	goto	u1541
  4143   0001B6  EFDF  F000         	goto	u1540
  4144   0001BA                     u1541:
  4145   0001BA  EFEF  F000         	goto	l506
  4146   0001BE                     u1540:
  4147   0001BE                     
  4148                           ;TAD_Controller.c: 89:                     SIO_SendChar(uid_ptr[i]);
  4149   0001BE  501F               	movf	_i^0,w,c
  4150   0001C0  2415               	addwf	_uid_ptr^0,w,c
  4151   0001C2  6E4F               	movwf	??_motorController^0,c
  4152   0001C4  0E00               	movlw	0
  4153   0001C6  2016               	addwfc	(_uid_ptr+1)^0,w,c
  4154   0001C8  6E50               	movwf	(??_motorController+1)^0,c
  4155   0001CA  C04F  FFF6         	movff	??_motorController,tblptrl
  4156   0001CE  C050  FFF7         	movff	??_motorController+1,tblptrh
  4157   0001D2                     	if	0	;tblptru may be non-zero
  4158   0001D2                     	endif
  4159   0001D2                     	if	0	;tblptru may be non-zero
  4160   0001D2                     	endif
  4161   0001D2  0008               	tblrd		*
  4162   0001D4  50F5               	movf	tablat,w,c
  4163   0001D6  EC7D  F00B         	call	_SIO_SendChar
  4164   0001DA  EF4F  F000         	goto	l2341
  4165   0001DE                     l506:
  4166                           
  4167                           ;TAD_Controller.c: 92:                     i = 0;
  4168   0001DE  6A1F               	clrf	_i^0,c
  4169   0001E0                     
  4170                           ;TAD_Controller.c: 93:                     state = 6;
  4171   0001E0  0E06               	movlw	6
  4172   0001E2  6E19               	movwf	motorController@state^0,c
  4173   0001E4                     
  4174                           ;TAD_Controller.c: 94:                     uid_ptr = "> LSBank - Enter PIN: ";
  4175   0001E4  0E9E               	movlw	low STR_16
  4176   0001E6  6E15               	movwf	_uid_ptr^0,c
  4177   0001E8  0E1F               	movlw	high STR_16
  4178   0001EA  6E16               	movwf	(_uid_ptr+1)^0,c
  4179   0001EC  EFA5  F005         	goto	l589
  4180   0001F0                     l2387:
  4181                           
  4182                           ;TAD_Controller.c: 99:             if (SIO_TxAvail()) {
  4183   0001F0  EC5E  F00B         	call	_SIO_TxAvail	;wreg free
  4184   0001F4  0900               	iorlw	0
  4185   0001F6  B4D8               	btfsc	status,2,c
  4186   0001F8  EF00  F001         	goto	u1551
  4187   0001FC  EF02  F001         	goto	u1550
  4188   000200                     u1551:
  4189   000200  EFA5  F005         	goto	l589
  4190   000204                     u1550:
  4191   000204                     
  4192                           ;TAD_Controller.c: 100:                 if (uid_ptr[i] != '\0') {
  4193   000204  501F               	movf	_i^0,w,c
  4194   000206  2415               	addwf	_uid_ptr^0,w,c
  4195   000208  6E4F               	movwf	??_motorController^0,c
  4196   00020A  0E00               	movlw	0
  4197   00020C  2016               	addwfc	(_uid_ptr+1)^0,w,c
  4198   00020E  6E50               	movwf	(??_motorController+1)^0,c
  4199   000210  C04F  FFF6         	movff	??_motorController,tblptrl
  4200   000214  C050  FFF7         	movff	??_motorController+1,tblptrh
  4201   000218                     	if	0	;tblptru may be non-zero
  4202   000218                     	endif
  4203   000218                     	if	0	;tblptru may be non-zero
  4204   000218                     	endif
  4205   000218  0008               	tblrd		*
  4206   00021A  50F5               	movf	tablat,w,c
  4207   00021C  0900               	iorlw	0
  4208   00021E  B4D8               	btfsc	status,2,c
  4209   000220  EF14  F001         	goto	u1561
  4210   000224  EF16  F001         	goto	u1560
  4211   000228                     u1561:
  4212   000228  EF26  F001         	goto	l510
  4213   00022C                     u1560:
  4214   00022C                     
  4215                           ;TAD_Controller.c: 101:                     SIO_SendChar(uid_ptr[i]);
  4216   00022C  501F               	movf	_i^0,w,c
  4217   00022E  2415               	addwf	_uid_ptr^0,w,c
  4218   000230  6E4F               	movwf	??_motorController^0,c
  4219   000232  0E00               	movlw	0
  4220   000234  2016               	addwfc	(_uid_ptr+1)^0,w,c
  4221   000236  6E50               	movwf	(??_motorController+1)^0,c
  4222   000238  C04F  FFF6         	movff	??_motorController,tblptrl
  4223   00023C  C050  FFF7         	movff	??_motorController+1,tblptrh
  4224   000240                     	if	0	;tblptru may be non-zero
  4225   000240                     	endif
  4226   000240                     	if	0	;tblptru may be non-zero
  4227   000240                     	endif
  4228   000240  0008               	tblrd		*
  4229   000242  50F5               	movf	tablat,w,c
  4230   000244  EC7D  F00B         	call	_SIO_SendChar
  4231   000248  EF4F  F000         	goto	l2341
  4232   00024C                     l510:
  4233                           
  4234                           ;TAD_Controller.c: 104:                     i = 0;
  4235   00024C  6A1F               	clrf	_i^0,c
  4236   00024E                     
  4237                           ;TAD_Controller.c: 105:                     state = 7;
  4238   00024E  0E07               	movlw	7
  4239   000250  6E19               	movwf	motorController@state^0,c
  4240   000252                     
  4241                           ;TAD_Controller.c: 106:                     TI_ResetTics(timerHandle);
  4242   000252  503A               	movf	_timerHandle@TAD_Controller$F1167^0,w,c
  4243   000254  EC04  F00B         	call	_TI_ResetTics
  4244   000258                     
  4245                           ;TAD_Controller.c: 107:                     setMatrix(1);
  4246   000258  0E01               	movlw	1
  4247   00025A  EC8F  F00B         	call	_setMatrix
  4248   00025E                     
  4249                           ;TAD_Controller.c: 108:                     setSpeaker(1);
  4250   00025E  0E01               	movlw	1
  4251   000260  EC8B  F00B         	call	_setSpeaker
  4252   000264                     
  4253                           ;TAD_Controller.c: 109:                     setIntensity(1);
  4254   000264  0E01               	movlw	1
  4255   000266  EC93  F00B         	call	_setIntensity
  4256   00026A                     
  4257                           ;TAD_Controller.c: 110:                     tries = 0;
  4258   00026A  6A1E               	clrf	_tries^0,c
  4259   00026C  EFA5  F005         	goto	l589
  4260   000270                     l2407:
  4261                           
  4262                           ;TAD_Controller.c: 115:             if (TI_GetTics(timerHandle) < 60000 && tries < 3) {
  4263   000270  503A               	movf	_timerHandle@TAD_Controller$F1167^0,w,c
  4264   000272  EC01  F00A         	call	_TI_GetTics
  4265   000276  5045               	movf	(?_TI_GetTics+3)^0,w,c
  4266   000278  1044               	iorwf	(?_TI_GetTics+2)^0,w,c
  4267   00027A  E109               	bnz	u1571
  4268   00027C  0E60               	movlw	96
  4269   00027E  5C42               	subwf	?_TI_GetTics^0,w,c
  4270   000280  0EEA               	movlw	234
  4271   000282  5843               	subwfb	(?_TI_GetTics+1)^0,w,c
  4272   000284  B0D8               	btfsc	status,0,c
  4273   000286  EF47  F001         	goto	u1571
  4274   00028A  EF49  F001         	goto	u1570
  4275   00028E                     u1571:
  4276   00028E  EF64  F001         	goto	l2421
  4277   000292                     u1570:
  4278   000292  0E03               	movlw	3
  4279   000294  601E               	cpfslt	_tries^0,c
  4280   000296  EF4F  F001         	goto	u1581
  4281   00029A  EF51  F001         	goto	u1580
  4282   00029E                     u1581:
  4283   00029E  EF64  F001         	goto	l2421
  4284   0002A2                     u1580:
  4285   0002A2                     
  4286                           ;TAD_Controller.c: 116:                 if (passwordSet() == 1) {
  4287   0002A2  EC6E  F00B         	call	_passwordSet	;wreg free
  4288   0002A6  06E8               	decf	wreg,f,c
  4289   0002A8  A4D8               	btfss	status,2,c
  4290   0002AA  EF59  F001         	goto	u1591
  4291   0002AE  EF5B  F001         	goto	u1590
  4292   0002B2                     u1591:
  4293   0002B2  EFA5  F005         	goto	l589
  4294   0002B6                     u1590:
  4295   0002B6                     
  4296                           ;TAD_Controller.c: 117:                     password = getPassword();
  4297   0002B6  EC97  F00B         	call	_getPassword	;wreg free
  4298   0002BA  6E1B               	movwf	_password@TAD_Controller$F1163^0,c
  4299   0002BC                     
  4300                           ;TAD_Controller.c: 118:                     state = 8;
  4301   0002BC  0E08               	movlw	8
  4302   0002BE  6E19               	movwf	motorController@state^0,c
  4303   0002C0                     
  4304                           ;TAD_Controller.c: 119:                     i = 0;
  4305   0002C0  6A1F               	clrf	_i^0,c
  4306   0002C2                     
  4307                           ;TAD_Controller.c: 120:                     count = 0;
  4308   0002C2  6A1D               	clrf	_count@TAD_Controller$F1159^0,c
  4309   0002C4  EFA5  F005         	goto	l589
  4310   0002C8                     l2421:
  4311                           
  4312                           ;TAD_Controller.c: 123:                 setMatrix(0);
  4313   0002C8  0E00               	movlw	0
  4314   0002CA  EC8F  F00B         	call	_setMatrix
  4315                           
  4316                           ;TAD_Controller.c: 124:                 setStop(1);
  4317   0002CE  0E01               	movlw	1
  4318   0002D0  EC87  F00B         	call	_setStop
  4319                           
  4320                           ;TAD_Controller.c: 125:                 setIntensity(0);
  4321   0002D4  0E00               	movlw	0
  4322   0002D6  EC93  F00B         	call	_setIntensity
  4323   0002DA                     
  4324                           ;TAD_Controller.c: 126:                 setAlarm(1);
  4325   0002DA  0E01               	movlw	1
  4326   0002DC  ECCC  F00A         	call	_setAlarm
  4327   0002E0                     
  4328                           ;TAD_Controller.c: 127:                 setOK(0);
  4329   0002E0  0E00               	movlw	0
  4330   0002E2  ECF2  F00A         	call	_setOK
  4331   0002E6                     
  4332                           ;TAD_Controller.c: 128:                 uid_ptr = "> LSBank - Thief intercepted\r\n";
  4333   0002E6  0E0E               	movlw	low STR_17
  4334   0002E8  6E15               	movwf	_uid_ptr^0,c
  4335   0002EA  0E1F               	movlw	high STR_17
  4336   0002EC  6E16               	movwf	(_uid_ptr+1)^0,c
  4337   0002EE                     l2429:
  4338                           
  4339                           ;TAD_Controller.c: 129:                 i = 0;
  4340   0002EE  6A1F               	clrf	_i^0,c
  4341   0002F0                     
  4342                           ;TAD_Controller.c: 130:                 state = 11;
  4343   0002F0  0E0B               	movlw	11
  4344   0002F2  6E19               	movwf	motorController@state^0,c
  4345   0002F4  EFA5  F005         	goto	l589
  4346   0002F8                     l2433:
  4347                           
  4348                           ;TAD_Controller.c: 134:             if (i < 7) {
  4349   0002F8  0E07               	movlw	7
  4350   0002FA  601F               	cpfslt	_i^0,c
  4351   0002FC  EF82  F001         	goto	u1601
  4352   000300  EF84  F001         	goto	u1600
  4353   000304                     u1601:
  4354   000304  EF98  F001         	goto	l2439
  4355   000308                     u1600:
  4356   000308                     
  4357                           ;TAD_Controller.c: 135:                 if (password[i] == psswrd[i]) {
  4358   000308  501F               	movf	_i^0,w,c
  4359   00030A  0F57               	addlw	low _psswrd
  4360   00030C  6ED9               	movwf	fsr2l,c
  4361   00030E  6ADA               	clrf	fsr2h,c
  4362   000310  501B               	movf	_password@TAD_Controller$F1163^0,w,c
  4363   000312  241F               	addwf	_i^0,w,c
  4364   000314  6EE1               	movwf	fsr1l,c
  4365   000316  6AE2               	clrf	fsr1h,c
  4366   000318  50DE               	movf	postinc2,w,c
  4367   00031A  18E6               	xorwf	postinc1,w,c
  4368   00031C  A4D8               	btfss	status,2,c
  4369   00031E  EF93  F001         	goto	u1611
  4370   000322  EF95  F001         	goto	u1610
  4371   000326                     u1611:
  4372   000326  EF4F  F000         	goto	l2341
  4373   00032A                     u1610:
  4374   00032A                     l2437:
  4375                           
  4376                           ;TAD_Controller.c: 136:                     count++;
  4377   00032A  2A1D               	incf	_count@TAD_Controller$F1159^0,f,c
  4378   00032C  EF4F  F000         	goto	l2341
  4379   000330                     l2439:
  4380                           
  4381                           ;TAD_Controller.c: 140:                 if (count == 7) {
  4382   000330  0E07               	movlw	7
  4383   000332  181D               	xorwf	_count@TAD_Controller$F1159^0,w,c
  4384   000334  A4D8               	btfss	status,2,c
  4385   000336  EF9F  F001         	goto	u1621
  4386   00033A  EFA1  F001         	goto	u1620
  4387   00033E                     u1621:
  4388   00033E  EFB2  F001         	goto	l2447
  4389   000342                     u1620:
  4390   000342                     
  4391                           ;TAD_Controller.c: 141:                     setMatrix(0);
  4392   000342  0E00               	movlw	0
  4393   000344  EC8F  F00B         	call	_setMatrix
  4394                           
  4395                           ;TAD_Controller.c: 142:                     setStop(1);
  4396   000348  0E01               	movlw	1
  4397   00034A  EC87  F00B         	call	_setStop
  4398                           
  4399                           ;TAD_Controller.c: 143:                     setIntensity(0);
  4400   00034E  0E00               	movlw	0
  4401   000350  EC93  F00B         	call	_setIntensity
  4402   000354                     
  4403                           ;TAD_Controller.c: 144:                     uid_ptr = "> LSBank - Open interior door\r\n
      +                          ";
  4404   000354  0EAF               	movlw	low STR_18
  4405   000356  6E15               	movwf	_uid_ptr^0,c
  4406   000358  0E1E               	movlw	high STR_18
  4407   00035A  6E16               	movwf	(_uid_ptr+1)^0,c
  4408   00035C                     
  4409                           ;TAD_Controller.c: 145:                     state = 15;
  4410   00035C  0E0F               	movlw	15
  4411   00035E  6E19               	movwf	motorController@state^0,c
  4412                           
  4413                           ;TAD_Controller.c: 146:                 } else {
  4414   000360  EFA5  F005         	goto	l589
  4415   000364                     l2447:
  4416                           
  4417                           ;TAD_Controller.c: 147:                     SIO_SendChar('\r');
  4418   000364  0E0D               	movlw	13
  4419   000366  EC7D  F00B         	call	_SIO_SendChar
  4420                           
  4421                           ;TAD_Controller.c: 148:                     SIO_SendChar('\n');
  4422   00036A  0E0A               	movlw	10
  4423   00036C  EC7D  F00B         	call	_SIO_SendChar
  4424   000370                     
  4425                           ;TAD_Controller.c: 149:                     uid_ptr = "> LSBank - Permission denied\r\n"
      +                          ;
  4426   000370  0EEF               	movlw	low STR_19
  4427   000372  6E15               	movwf	_uid_ptr^0,c
  4428   000374  0E1E               	movlw	high STR_19
  4429   000376  6E16               	movwf	(_uid_ptr+1)^0,c
  4430   000378                     
  4431                           ;TAD_Controller.c: 150:                     state = 9;
  4432   000378  0E09               	movlw	9
  4433   00037A  6E19               	movwf	motorController@state^0,c
  4434   00037C                     
  4435                           ;TAD_Controller.c: 151:                     i = 0;
  4436   00037C  6A1F               	clrf	_i^0,c
  4437   00037E                     
  4438                           ;TAD_Controller.c: 152:                     tries++;
  4439   00037E  2A1E               	incf	_tries^0,f,c
  4440   000380  EFA5  F005         	goto	l589
  4441   000384                     l2457:
  4442                           
  4443                           ;TAD_Controller.c: 157:             if (SIO_TxAvail()) {
  4444   000384  EC5E  F00B         	call	_SIO_TxAvail	;wreg free
  4445   000388  0900               	iorlw	0
  4446   00038A  B4D8               	btfsc	status,2,c
  4447   00038C  EFCA  F001         	goto	u1631
  4448   000390  EFCC  F001         	goto	u1630
  4449   000394                     u1631:
  4450   000394  EFA5  F005         	goto	l589
  4451   000398                     u1630:
  4452   000398                     
  4453                           ;TAD_Controller.c: 158:                 if (uid_ptr[i] != '\0') {
  4454   000398  501F               	movf	_i^0,w,c
  4455   00039A  2415               	addwf	_uid_ptr^0,w,c
  4456   00039C  6E4F               	movwf	??_motorController^0,c
  4457   00039E  0E00               	movlw	0
  4458   0003A0  2016               	addwfc	(_uid_ptr+1)^0,w,c
  4459   0003A2  6E50               	movwf	(??_motorController+1)^0,c
  4460   0003A4  C04F  FFF6         	movff	??_motorController,tblptrl
  4461   0003A8  C050  FFF7         	movff	??_motorController+1,tblptrh
  4462   0003AC                     	if	0	;tblptru may be non-zero
  4463   0003AC                     	endif
  4464   0003AC                     	if	0	;tblptru may be non-zero
  4465   0003AC                     	endif
  4466   0003AC  0008               	tblrd		*
  4467   0003AE  50F5               	movf	tablat,w,c
  4468   0003B0  0900               	iorlw	0
  4469   0003B2  B4D8               	btfsc	status,2,c
  4470   0003B4  EFDE  F001         	goto	u1641
  4471   0003B8  EFE0  F001         	goto	u1640
  4472   0003BC                     u1641:
  4473   0003BC  EFF0  F001         	goto	l2465
  4474   0003C0                     u1640:
  4475   0003C0                     
  4476                           ;TAD_Controller.c: 159:                     SIO_SendChar(uid_ptr[i]);
  4477   0003C0  501F               	movf	_i^0,w,c
  4478   0003C2  2415               	addwf	_uid_ptr^0,w,c
  4479   0003C4  6E4F               	movwf	??_motorController^0,c
  4480   0003C6  0E00               	movlw	0
  4481   0003C8  2016               	addwfc	(_uid_ptr+1)^0,w,c
  4482   0003CA  6E50               	movwf	(??_motorController+1)^0,c
  4483   0003CC  C04F  FFF6         	movff	??_motorController,tblptrl
  4484   0003D0  C050  FFF7         	movff	??_motorController+1,tblptrh
  4485   0003D4                     	if	0	;tblptru may be non-zero
  4486   0003D4                     	endif
  4487   0003D4                     	if	0	;tblptru may be non-zero
  4488   0003D4                     	endif
  4489   0003D4  0008               	tblrd		*
  4490   0003D6  50F5               	movf	tablat,w,c
  4491   0003D8  EC7D  F00B         	call	_SIO_SendChar
  4492   0003DC  EF4F  F000         	goto	l2341
  4493   0003E0                     l2465:
  4494                           
  4495                           ;TAD_Controller.c: 162:                     if (TI_GetTics(timerHandle) < 60000 && tries
      +                           < 3) {
  4496   0003E0  503A               	movf	_timerHandle@TAD_Controller$F1167^0,w,c
  4497   0003E2  EC01  F00A         	call	_TI_GetTics
  4498   0003E6  5045               	movf	(?_TI_GetTics+3)^0,w,c
  4499   0003E8  1044               	iorwf	(?_TI_GetTics+2)^0,w,c
  4500   0003EA  E109               	bnz	u1651
  4501   0003EC  0E60               	movlw	96
  4502   0003EE  5C42               	subwf	?_TI_GetTics^0,w,c
  4503   0003F0  0EEA               	movlw	234
  4504   0003F2  5843               	subwfb	(?_TI_GetTics+1)^0,w,c
  4505   0003F4  B0D8               	btfsc	status,0,c
  4506   0003F6  EFFF  F001         	goto	u1651
  4507   0003FA  EF01  F002         	goto	u1650
  4508   0003FE                     u1651:
  4509   0003FE  EF12  F002         	goto	l2475
  4510   000402                     u1650:
  4511   000402  0E03               	movlw	3
  4512   000404  601E               	cpfslt	_tries^0,c
  4513   000406  EF07  F002         	goto	u1661
  4514   00040A  EF09  F002         	goto	u1660
  4515   00040E                     u1661:
  4516   00040E  EF12  F002         	goto	l2475
  4517   000412                     u1660:
  4518   000412                     
  4519                           ;TAD_Controller.c: 163:                         i = 0;
  4520   000412  6A1F               	clrf	_i^0,c
  4521   000414                     
  4522                           ;TAD_Controller.c: 164:                         state = 10;
  4523   000414  0E0A               	movlw	10
  4524   000416  6E19               	movwf	motorController@state^0,c
  4525   000418                     
  4526                           ;TAD_Controller.c: 165:                         uid_ptr = "> LSBank - Enter PIN: ";
  4527   000418  0E9E               	movlw	low STR_16
  4528   00041A  6E15               	movwf	_uid_ptr^0,c
  4529   00041C  0E1F               	movlw	high STR_16
  4530   00041E  6E16               	movwf	(_uid_ptr+1)^0,c
  4531                           
  4532                           ;TAD_Controller.c: 166:                     } else {
  4533   000420  EFA5  F005         	goto	l589
  4534   000424                     l2475:
  4535                           
  4536                           ;TAD_Controller.c: 167:                         setMatrix(0);
  4537   000424  0E00               	movlw	0
  4538   000426  EC8F  F00B         	call	_setMatrix
  4539                           
  4540                           ;TAD_Controller.c: 168:                         setStop(1);
  4541   00042A  0E01               	movlw	1
  4542   00042C  EC87  F00B         	call	_setStop
  4543                           
  4544                           ;TAD_Controller.c: 169:                         setIntensity(0);
  4545   000430  0E00               	movlw	0
  4546   000432  EC93  F00B         	call	_setIntensity
  4547   000436                     
  4548                           ;TAD_Controller.c: 170:                         setAlarm(1);
  4549   000436  0E01               	movlw	1
  4550   000438  ECCC  F00A         	call	_setAlarm
  4551   00043C                     
  4552                           ;TAD_Controller.c: 171:                         setOK(0);
  4553   00043C  0E00               	movlw	0
  4554   00043E  ECF2  F00A         	call	_setOK
  4555   000442                     
  4556                           ;TAD_Controller.c: 172:                         uid_ptr = "> LSBank - Thief intercepted\
      +                          r\n";
  4557   000442  0E0E               	movlw	low STR_17
  4558   000444  6E15               	movwf	_uid_ptr^0,c
  4559   000446  0E1F               	movlw	high STR_17
  4560   000448  6E16               	movwf	(_uid_ptr+1)^0,c
  4561   00044A  EF77  F001         	goto	l2429
  4562   00044E                     l2487:
  4563                           
  4564                           ;TAD_Controller.c: 180:             if (SIO_TxAvail()) {
  4565   00044E  EC5E  F00B         	call	_SIO_TxAvail	;wreg free
  4566   000452  0900               	iorlw	0
  4567   000454  B4D8               	btfsc	status,2,c
  4568   000456  EF2F  F002         	goto	u1671
  4569   00045A  EF31  F002         	goto	u1670
  4570   00045E                     u1671:
  4571   00045E  EFA5  F005         	goto	l589
  4572   000462                     u1670:
  4573   000462                     
  4574                           ;TAD_Controller.c: 181:                 if (uid_ptr[i] != '\0') {
  4575   000462  501F               	movf	_i^0,w,c
  4576   000464  2415               	addwf	_uid_ptr^0,w,c
  4577   000466  6E4F               	movwf	??_motorController^0,c
  4578   000468  0E00               	movlw	0
  4579   00046A  2016               	addwfc	(_uid_ptr+1)^0,w,c
  4580   00046C  6E50               	movwf	(??_motorController+1)^0,c
  4581   00046E  C04F  FFF6         	movff	??_motorController,tblptrl
  4582   000472  C050  FFF7         	movff	??_motorController+1,tblptrh
  4583   000476                     	if	0	;tblptru may be non-zero
  4584   000476                     	endif
  4585   000476                     	if	0	;tblptru may be non-zero
  4586   000476                     	endif
  4587   000476  0008               	tblrd		*
  4588   000478  50F5               	movf	tablat,w,c
  4589   00047A  0900               	iorlw	0
  4590   00047C  B4D8               	btfsc	status,2,c
  4591   00047E  EF43  F002         	goto	u1681
  4592   000482  EF45  F002         	goto	u1680
  4593   000486                     u1681:
  4594   000486  EF55  F002         	goto	l530
  4595   00048A                     u1680:
  4596   00048A                     
  4597                           ;TAD_Controller.c: 182:                     SIO_SendChar(uid_ptr[i]);
  4598   00048A  501F               	movf	_i^0,w,c
  4599   00048C  2415               	addwf	_uid_ptr^0,w,c
  4600   00048E  6E4F               	movwf	??_motorController^0,c
  4601   000490  0E00               	movlw	0
  4602   000492  2016               	addwfc	(_uid_ptr+1)^0,w,c
  4603   000494  6E50               	movwf	(??_motorController+1)^0,c
  4604   000496  C04F  FFF6         	movff	??_motorController,tblptrl
  4605   00049A  C050  FFF7         	movff	??_motorController+1,tblptrh
  4606   00049E                     	if	0	;tblptru may be non-zero
  4607   00049E                     	endif
  4608   00049E                     	if	0	;tblptru may be non-zero
  4609   00049E                     	endif
  4610   00049E  0008               	tblrd		*
  4611   0004A0  50F5               	movf	tablat,w,c
  4612   0004A2  EC7D  F00B         	call	_SIO_SendChar
  4613   0004A6  EF4F  F000         	goto	l2341
  4614   0004AA                     l530:
  4615                           
  4616                           ;TAD_Controller.c: 185:                     i = 0;
  4617   0004AA  6A1F               	clrf	_i^0,c
  4618   0004AC                     
  4619                           ;TAD_Controller.c: 186:                     state = 7;
  4620   0004AC  0E07               	movlw	7
  4621   0004AE  6E19               	movwf	motorController@state^0,c
  4622   0004B0  EFA5  F005         	goto	l589
  4623   0004B4                     l2497:
  4624                           
  4625                           ;TAD_Controller.c: 191:             if (SIO_TxAvail()) {
  4626   0004B4  EC5E  F00B         	call	_SIO_TxAvail	;wreg free
  4627   0004B8  0900               	iorlw	0
  4628   0004BA  B4D8               	btfsc	status,2,c
  4629   0004BC  EF62  F002         	goto	u1691
  4630   0004C0  EF64  F002         	goto	u1690
  4631   0004C4                     u1691:
  4632   0004C4  EFA5  F005         	goto	l589
  4633   0004C8                     u1690:
  4634   0004C8                     
  4635                           ;TAD_Controller.c: 192:                 if (uid_ptr[i] != '\0') {
  4636   0004C8  501F               	movf	_i^0,w,c
  4637   0004CA  2415               	addwf	_uid_ptr^0,w,c
  4638   0004CC  6E4F               	movwf	??_motorController^0,c
  4639   0004CE  0E00               	movlw	0
  4640   0004D0  2016               	addwfc	(_uid_ptr+1)^0,w,c
  4641   0004D2  6E50               	movwf	(??_motorController+1)^0,c
  4642   0004D4  C04F  FFF6         	movff	??_motorController,tblptrl
  4643   0004D8  C050  FFF7         	movff	??_motorController+1,tblptrh
  4644   0004DC                     	if	0	;tblptru may be non-zero
  4645   0004DC                     	endif
  4646   0004DC                     	if	0	;tblptru may be non-zero
  4647   0004DC                     	endif
  4648   0004DC  0008               	tblrd		*
  4649   0004DE  50F5               	movf	tablat,w,c
  4650   0004E0  0900               	iorlw	0
  4651   0004E2  B4D8               	btfsc	status,2,c
  4652   0004E4  EF76  F002         	goto	u1701
  4653   0004E8  EF78  F002         	goto	u1700
  4654   0004EC                     u1701:
  4655   0004EC  EF88  F002         	goto	l2505
  4656   0004F0                     u1700:
  4657   0004F0                     
  4658                           ;TAD_Controller.c: 193:                     SIO_SendChar(uid_ptr[i]);
  4659   0004F0  501F               	movf	_i^0,w,c
  4660   0004F2  2415               	addwf	_uid_ptr^0,w,c
  4661   0004F4  6E4F               	movwf	??_motorController^0,c
  4662   0004F6  0E00               	movlw	0
  4663   0004F8  2016               	addwfc	(_uid_ptr+1)^0,w,c
  4664   0004FA  6E50               	movwf	(??_motorController+1)^0,c
  4665   0004FC  C04F  FFF6         	movff	??_motorController,tblptrl
  4666   000500  C050  FFF7         	movff	??_motorController+1,tblptrh
  4667   000504                     	if	0	;tblptru may be non-zero
  4668   000504                     	endif
  4669   000504                     	if	0	;tblptru may be non-zero
  4670   000504                     	endif
  4671   000504  0008               	tblrd		*
  4672   000506  50F5               	movf	tablat,w,c
  4673   000508  EC7D  F00B         	call	_SIO_SendChar
  4674   00050C  EF4F  F000         	goto	l2341
  4675   000510                     l2505:
  4676                           
  4677                           ;TAD_Controller.c: 196:                     speaker_sound(0, 10000);
  4678   000510  0E27               	movlw	39
  4679   000512  6E44               	movwf	(speaker_sound@duracion_ms+1)^0,c
  4680   000514  0E10               	movlw	16
  4681   000516  6E43               	movwf	speaker_sound@duracion_ms^0,c
  4682   000518  0E00               	movlw	0
  4683   00051A  EC69  F009         	call	_speaker_sound
  4684   00051E                     
  4685                           ;TAD_Controller.c: 197:                     i = 0;
  4686   00051E  6A1F               	clrf	_i^0,c
  4687   000520                     
  4688                           ;TAD_Controller.c: 198:                     state = 12;
  4689   000520  0E0C               	movlw	12
  4690   000522  6E19               	movwf	motorController@state^0,c
  4691   000524                     
  4692                           ;TAD_Controller.c: 199:                     uid_ptr = "> LSBank - Reset System: ";
  4693   000524  0E84               	movlw	low STR_22
  4694   000526  6E15               	movwf	_uid_ptr^0,c
  4695   000528  0E1F               	movlw	high STR_22
  4696   00052A  6E16               	movwf	(_uid_ptr+1)^0,c
  4697   00052C  EFA5  F005         	goto	l589
  4698   000530                     l2513:
  4699                           
  4700                           ;TAD_Controller.c: 204:             if (SIO_TxAvail()) {
  4701   000530  EC5E  F00B         	call	_SIO_TxAvail	;wreg free
  4702   000534  0900               	iorlw	0
  4703   000536  B4D8               	btfsc	status,2,c
  4704   000538  EFA0  F002         	goto	u1711
  4705   00053C  EFA2  F002         	goto	u1710
  4706   000540                     u1711:
  4707   000540  EFA5  F005         	goto	l589
  4708   000544                     u1710:
  4709   000544                     
  4710                           ;TAD_Controller.c: 205:                 if (uid_ptr[i] != '\0') {
  4711   000544  501F               	movf	_i^0,w,c
  4712   000546  2415               	addwf	_uid_ptr^0,w,c
  4713   000548  6E4F               	movwf	??_motorController^0,c
  4714   00054A  0E00               	movlw	0
  4715   00054C  2016               	addwfc	(_uid_ptr+1)^0,w,c
  4716   00054E  6E50               	movwf	(??_motorController+1)^0,c
  4717   000550  C04F  FFF6         	movff	??_motorController,tblptrl
  4718   000554  C050  FFF7         	movff	??_motorController+1,tblptrh
  4719   000558                     	if	0	;tblptru may be non-zero
  4720   000558                     	endif
  4721   000558                     	if	0	;tblptru may be non-zero
  4722   000558                     	endif
  4723   000558  0008               	tblrd		*
  4724   00055A  50F5               	movf	tablat,w,c
  4725   00055C  0900               	iorlw	0
  4726   00055E  B4D8               	btfsc	status,2,c
  4727   000560  EFB4  F002         	goto	u1721
  4728   000564  EFB6  F002         	goto	u1720
  4729   000568                     u1721:
  4730   000568  EFC6  F002         	goto	l538
  4731   00056C                     u1720:
  4732   00056C                     
  4733                           ;TAD_Controller.c: 206:                     SIO_SendChar(uid_ptr[i]);
  4734   00056C  501F               	movf	_i^0,w,c
  4735   00056E  2415               	addwf	_uid_ptr^0,w,c
  4736   000570  6E4F               	movwf	??_motorController^0,c
  4737   000572  0E00               	movlw	0
  4738   000574  2016               	addwfc	(_uid_ptr+1)^0,w,c
  4739   000576  6E50               	movwf	(??_motorController+1)^0,c
  4740   000578  C04F  FFF6         	movff	??_motorController,tblptrl
  4741   00057C  C050  FFF7         	movff	??_motorController+1,tblptrh
  4742   000580                     	if	0	;tblptru may be non-zero
  4743   000580                     	endif
  4744   000580                     	if	0	;tblptru may be non-zero
  4745   000580                     	endif
  4746   000580  0008               	tblrd		*
  4747   000582  50F5               	movf	tablat,w,c
  4748   000584  EC7D  F00B         	call	_SIO_SendChar
  4749   000588  EF4F  F000         	goto	l2341
  4750   00058C                     l538:
  4751                           
  4752                           ;TAD_Controller.c: 209:                     i = 0;
  4753   00058C  6A1F               	clrf	_i^0,c
  4754   00058E                     
  4755                           ;TAD_Controller.c: 210:                     state = 13;
  4756   00058E  0E0D               	movlw	13
  4757   000590  6E19               	movwf	motorController@state^0,c
  4758   000592                     l2523:
  4759                           
  4760                           ;TAD_Controller.c: 211:                     yesIdx = 0;
  4761   000592  6A1A               	clrf	_yesIdx^0,c
  4762   000594  EFA5  F005         	goto	l589
  4763   000598                     l2525:
  4764                           
  4765                           ;TAD_Controller.c: 216:             if (SIO_CharAvail()) {
  4766   000598  EC16  F00B         	call	_SIO_CharAvail	;wreg free
  4767   00059C  5042               	movf	?_SIO_CharAvail^0,w,c
  4768   00059E  1043               	iorwf	(?_SIO_CharAvail+1)^0,w,c
  4769   0005A0  B4D8               	btfsc	status,2,c
  4770   0005A2  EFD5  F002         	goto	u1731
  4771   0005A6  EFD7  F002         	goto	u1730
  4772   0005AA                     u1731:
  4773   0005AA  EFA5  F005         	goto	l589
  4774   0005AE                     u1730:
  4775   0005AE                     
  4776                           ;TAD_Controller.c: 217:                 char c = SIO_GetChar();
  4777   0005AE  EC99  F00B         	call	_SIO_GetChar	;wreg free
  4778   0005B2  6E51               	movwf	motorController@c^0,c
  4779   0005B4                     
  4780                           ;TAD_Controller.c: 218:                 if (!(c == '\r' || c == '\n')) {
  4781   0005B4  0E0D               	movlw	13
  4782   0005B6  1851               	xorwf	motorController@c^0,w,c
  4783   0005B8  B4D8               	btfsc	status,2,c
  4784   0005BA  EFE1  F002         	goto	u1741
  4785   0005BE  EFE3  F002         	goto	u1740
  4786   0005C2                     u1741:
  4787   0005C2  EFFD  F002         	goto	l2539
  4788   0005C6                     u1740:
  4789   0005C6  0E0A               	movlw	10
  4790   0005C8  1851               	xorwf	motorController@c^0,w,c
  4791   0005CA  B4D8               	btfsc	status,2,c
  4792   0005CC  EFEA  F002         	goto	u1751
  4793   0005D0  EFEC  F002         	goto	u1750
  4794   0005D4                     u1751:
  4795   0005D4  EFFD  F002         	goto	l2539
  4796   0005D8                     u1750:
  4797   0005D8                     
  4798                           ;TAD_Controller.c: 219:                     if (yesIdx < 3) {
  4799   0005D8  0E03               	movlw	3
  4800   0005DA  601A               	cpfslt	_yesIdx^0,c
  4801   0005DC  EFF2  F002         	goto	u1761
  4802   0005E0  EFF4  F002         	goto	u1760
  4803   0005E4                     u1761:
  4804   0005E4  EFA5  F005         	goto	l589
  4805   0005E8                     u1760:
  4806   0005E8                     
  4807                           ;TAD_Controller.c: 220:                         yesBuf[yesIdx++] = c;
  4808   0005E8  501A               	movf	_yesIdx^0,w,c
  4809   0005EA  0F01               	addlw	low _yesBuf
  4810   0005EC  6ED9               	movwf	fsr2l,c
  4811   0005EE  6ADA               	clrf	fsr2h,c
  4812   0005F0  C051  FFDF         	movff	motorController@c,indf2
  4813   0005F4                     l2537:
  4814   0005F4  2A1A               	incf	_yesIdx^0,f,c
  4815   0005F6  EFA5  F005         	goto	l589
  4816   0005FA                     l2539:
  4817                           
  4818                           ;TAD_Controller.c: 223:                     yesBuf[yesIdx] = '\0';
  4819   0005FA  501A               	movf	_yesIdx^0,w,c
  4820   0005FC  0F01               	addlw	low _yesBuf
  4821   0005FE  6ED9               	movwf	fsr2l,c
  4822   000600  6ADA               	clrf	fsr2h,c
  4823   000602  6ADF               	clrf	indf2,c
  4824   000604                     
  4825                           ;TAD_Controller.c: 224:                     i = 0;
  4826   000604  6A1F               	clrf	_i^0,c
  4827   000606                     
  4828                           ;TAD_Controller.c: 225:                     count = 0;
  4829   000606  6A1D               	clrf	_count@TAD_Controller$F1159^0,c
  4830   000608                     
  4831                           ;TAD_Controller.c: 226:                     state = 14;
  4832   000608  0E0E               	movlw	14
  4833   00060A  6E19               	movwf	motorController@state^0,c
  4834   00060C  EFA5  F005         	goto	l589
  4835   000610                     l2547:
  4836                           
  4837                           ;TAD_Controller.c: 231:             if (i < 3) {
  4838   000610  0E03               	movlw	3
  4839   000612  601F               	cpfslt	_i^0,c
  4840   000614  EF0E  F003         	goto	u1771
  4841   000618  EF10  F003         	goto	u1770
  4842   00061C                     u1771:
  4843   00061C  EF23  F003         	goto	l2553
  4844   000620                     u1770:
  4845   000620                     
  4846                           ;TAD_Controller.c: 232:                 if (yesBuf[i] == yes_aux[i]) {
  4847   000620  501F               	movf	_i^0,w,c
  4848   000622  0F5F               	addlw	low _yes_aux
  4849   000624  6ED9               	movwf	fsr2l,c
  4850   000626  6ADA               	clrf	fsr2h,c
  4851   000628  501F               	movf	_i^0,w,c
  4852   00062A  0F01               	addlw	low _yesBuf
  4853   00062C  6EE1               	movwf	fsr1l,c
  4854   00062E  6AE2               	clrf	fsr1h,c
  4855   000630  50DE               	movf	postinc2,w,c
  4856   000632  18E6               	xorwf	postinc1,w,c
  4857   000634  A4D8               	btfss	status,2,c
  4858   000636  EF1F  F003         	goto	u1781
  4859   00063A  EF21  F003         	goto	u1780
  4860   00063E                     u1781:
  4861   00063E  EF4F  F000         	goto	l2341
  4862   000642                     u1780:
  4863   000642  EF95  F001         	goto	l2437
  4864   000646                     l2553:
  4865                           
  4866                           ;TAD_Controller.c: 237:                 if (count == 3) {
  4867   000646  0E03               	movlw	3
  4868   000648  181D               	xorwf	_count@TAD_Controller$F1159^0,w,c
  4869   00064A  A4D8               	btfss	status,2,c
  4870   00064C  EF2A  F003         	goto	u1791
  4871   000650  EF2C  F003         	goto	u1790
  4872   000654                     u1791:
  4873   000654  EF30  F003         	goto	l2557
  4874   000658                     u1790:
  4875   000658                     
  4876                           ;TAD_Controller.c: 238:                     state = 0;
  4877   000658  6A19               	clrf	motorController@state^0,c
  4878                           
  4879                           ;TAD_Controller.c: 239:                     i = 0;
  4880   00065A  6A1F               	clrf	_i^0,c
  4881                           
  4882                           ;TAD_Controller.c: 240:                 } else {
  4883   00065C  EFA5  F005         	goto	l589
  4884   000660                     l2557:
  4885                           
  4886                           ;TAD_Controller.c: 241:                     state = 12;
  4887   000660  0E0C               	movlw	12
  4888   000662  6E19               	movwf	motorController@state^0,c
  4889   000664                     
  4890                           ;TAD_Controller.c: 242:                     yesIdx = 0;
  4891   000664  6A1A               	clrf	_yesIdx^0,c
  4892   000666                     
  4893                           ;TAD_Controller.c: 243:                     uid_ptr = "> LSBank - Reset System: ";
  4894   000666  0E84               	movlw	low STR_22
  4895   000668  6E15               	movwf	_uid_ptr^0,c
  4896   00066A  0E1F               	movlw	high STR_22
  4897   00066C  6E16               	movwf	(_uid_ptr+1)^0,c
  4898   00066E                     l2563:
  4899                           
  4900                           ;TAD_Controller.c: 244:                     i = 0;
  4901   00066E  6A1F               	clrf	_i^0,c
  4902   000670  EFA5  F005         	goto	l589
  4903   000674                     l2565:
  4904                           
  4905                           ;TAD_Controller.c: 249:             if (SIO_TxAvail()) {
  4906   000674  EC5E  F00B         	call	_SIO_TxAvail	;wreg free
  4907   000678  0900               	iorlw	0
  4908   00067A  B4D8               	btfsc	status,2,c
  4909   00067C  EF42  F003         	goto	u1801
  4910   000680  EF44  F003         	goto	u1800
  4911   000684                     u1801:
  4912   000684  EFA5  F005         	goto	l589
  4913   000688                     u1800:
  4914   000688                     
  4915                           ;TAD_Controller.c: 250:                 if (uid_ptr[i] != '\0') {
  4916   000688  501F               	movf	_i^0,w,c
  4917   00068A  2415               	addwf	_uid_ptr^0,w,c
  4918   00068C  6E4F               	movwf	??_motorController^0,c
  4919   00068E  0E00               	movlw	0
  4920   000690  2016               	addwfc	(_uid_ptr+1)^0,w,c
  4921   000692  6E50               	movwf	(??_motorController+1)^0,c
  4922   000694  C04F  FFF6         	movff	??_motorController,tblptrl
  4923   000698  C050  FFF7         	movff	??_motorController+1,tblptrh
  4924   00069C                     	if	0	;tblptru may be non-zero
  4925   00069C                     	endif
  4926   00069C                     	if	0	;tblptru may be non-zero
  4927   00069C                     	endif
  4928   00069C  0008               	tblrd		*
  4929   00069E  50F5               	movf	tablat,w,c
  4930   0006A0  0900               	iorlw	0
  4931   0006A2  B4D8               	btfsc	status,2,c
  4932   0006A4  EF56  F003         	goto	u1811
  4933   0006A8  EF58  F003         	goto	u1810
  4934   0006AC                     u1811:
  4935   0006AC  EF68  F003         	goto	l2573
  4936   0006B0                     u1810:
  4937   0006B0                     
  4938                           ;TAD_Controller.c: 251:                     SIO_SendChar(uid_ptr[i]);
  4939   0006B0  501F               	movf	_i^0,w,c
  4940   0006B2  2415               	addwf	_uid_ptr^0,w,c
  4941   0006B4  6E4F               	movwf	??_motorController^0,c
  4942   0006B6  0E00               	movlw	0
  4943   0006B8  2016               	addwfc	(_uid_ptr+1)^0,w,c
  4944   0006BA  6E50               	movwf	(??_motorController+1)^0,c
  4945   0006BC  C04F  FFF6         	movff	??_motorController,tblptrl
  4946   0006C0  C050  FFF7         	movff	??_motorController+1,tblptrh
  4947   0006C4                     	if	0	;tblptru may be non-zero
  4948   0006C4                     	endif
  4949   0006C4                     	if	0	;tblptru may be non-zero
  4950   0006C4                     	endif
  4951   0006C4  0008               	tblrd		*
  4952   0006C6  50F5               	movf	tablat,w,c
  4953   0006C8  EC7D  F00B         	call	_SIO_SendChar
  4954   0006CC  EF4F  F000         	goto	l2341
  4955   0006D0                     l2573:
  4956                           
  4957                           ;TAD_Controller.c: 254:                     TI_ResetTics(timerHandle);
  4958   0006D0  503A               	movf	_timerHandle@TAD_Controller$F1167^0,w,c
  4959   0006D2  EC04  F00B         	call	_TI_ResetTics
  4960   0006D6                     
  4961                           ;TAD_Controller.c: 255:                     state = 16;
  4962   0006D6  0E10               	movlw	16
  4963   0006D8  6E19               	movwf	motorController@state^0,c
  4964   0006DA  EFA5  F005         	goto	l589
  4965   0006DE                     l2577:
  4966                           
  4967                           ;TAD_Controller.c: 260:             if (TI_GetTics(timerHandle) >= 1000) {
  4968   0006DE  503A               	movf	_timerHandle@TAD_Controller$F1167^0,w,c
  4969   0006E0  EC01  F00A         	call	_TI_GetTics
  4970   0006E4  5045               	movf	(?_TI_GetTics+3)^0,w,c
  4971   0006E6  1044               	iorwf	(?_TI_GetTics+2)^0,w,c
  4972   0006E8  E10B               	bnz	u1820
  4973   0006EA  0EE8               	movlw	232
  4974   0006EC  5C42               	subwf	?_TI_GetTics^0,w,c
  4975   0006EE  0E03               	movlw	3
  4976   0006F0  5843               	subwfb	(?_TI_GetTics+1)^0,w,c
  4977   0006F2  A0D8               	btfss	status,0,c
  4978   0006F4  EF7E  F003         	goto	u1821
  4979   0006F8  EF80  F003         	goto	u1820
  4980   0006FC                     u1821:
  4981   0006FC  EFA5  F005         	goto	l589
  4982   000700                     u1820:
  4983   000700                     
  4984                           ;TAD_Controller.c: 261:                 uid_ptr = "> LSBank - Close interior door\r\n";
  4985   000700  0E6D               	movlw	low STR_24
  4986   000702  6E15               	movwf	_uid_ptr^0,c
  4987   000704  0E1E               	movlw	high STR_24
  4988   000706  6E16               	movwf	(_uid_ptr+1)^0,c
  4989   000708                     
  4990                           ;TAD_Controller.c: 262:                 i = 0;
  4991   000708  6A1F               	clrf	_i^0,c
  4992   00070A                     
  4993                           ;TAD_Controller.c: 263:                 state = 17;
  4994   00070A  0E11               	movlw	17
  4995   00070C  6E19               	movwf	motorController@state^0,c
  4996   00070E  EFA5  F005         	goto	l589
  4997   000712                     l2585:
  4998                           
  4999                           ;TAD_Controller.c: 267:             if (SIO_TxAvail()) {
  5000   000712  EC5E  F00B         	call	_SIO_TxAvail	;wreg free
  5001   000716  0900               	iorlw	0
  5002   000718  B4D8               	btfsc	status,2,c
  5003   00071A  EF91  F003         	goto	u1831
  5004   00071E  EF93  F003         	goto	u1830
  5005   000722                     u1831:
  5006   000722  EFA5  F005         	goto	l589
  5007   000726                     u1830:
  5008   000726                     
  5009                           ;TAD_Controller.c: 268:                 if (uid_ptr[i] != '\0') {
  5010   000726  501F               	movf	_i^0,w,c
  5011   000728  2415               	addwf	_uid_ptr^0,w,c
  5012   00072A  6E4F               	movwf	??_motorController^0,c
  5013   00072C  0E00               	movlw	0
  5014   00072E  2016               	addwfc	(_uid_ptr+1)^0,w,c
  5015   000730  6E50               	movwf	(??_motorController+1)^0,c
  5016   000732  C04F  FFF6         	movff	??_motorController,tblptrl
  5017   000736  C050  FFF7         	movff	??_motorController+1,tblptrh
  5018   00073A                     	if	0	;tblptru may be non-zero
  5019   00073A                     	endif
  5020   00073A                     	if	0	;tblptru may be non-zero
  5021   00073A                     	endif
  5022   00073A  0008               	tblrd		*
  5023   00073C  50F5               	movf	tablat,w,c
  5024   00073E  0900               	iorlw	0
  5025   000740  B4D8               	btfsc	status,2,c
  5026   000742  EFA5  F003         	goto	u1841
  5027   000746  EFA7  F003         	goto	u1840
  5028   00074A                     u1841:
  5029   00074A  EFB7  F003         	goto	l2593
  5030   00074E                     u1840:
  5031   00074E                     
  5032                           ;TAD_Controller.c: 269:                     SIO_SendChar(uid_ptr[i]);
  5033   00074E  501F               	movf	_i^0,w,c
  5034   000750  2415               	addwf	_uid_ptr^0,w,c
  5035   000752  6E4F               	movwf	??_motorController^0,c
  5036   000754  0E00               	movlw	0
  5037   000756  2016               	addwfc	(_uid_ptr+1)^0,w,c
  5038   000758  6E50               	movwf	(??_motorController+1)^0,c
  5039   00075A  C04F  FFF6         	movff	??_motorController,tblptrl
  5040   00075E  C050  FFF7         	movff	??_motorController+1,tblptrh
  5041   000762                     	if	0	;tblptru may be non-zero
  5042   000762                     	endif
  5043   000762                     	if	0	;tblptru may be non-zero
  5044   000762                     	endif
  5045   000762  0008               	tblrd		*
  5046   000764  50F5               	movf	tablat,w,c
  5047   000766  EC7D  F00B         	call	_SIO_SendChar
  5048   00076A  EF4F  F000         	goto	l2341
  5049   00076E                     l2593:
  5050                           
  5051                           ;TAD_Controller.c: 272:                     speaker_sound(1, 200);
  5052   00076E  0E00               	movlw	0
  5053   000770  6E44               	movwf	(speaker_sound@duracion_ms+1)^0,c
  5054   000772  0EC8               	movlw	200
  5055   000774  6E43               	movwf	speaker_sound@duracion_ms^0,c
  5056   000776  0E01               	movlw	1
  5057   000778  EC69  F009         	call	_speaker_sound
  5058   00077C                     
  5059                           ;TAD_Controller.c: 273:                     state = 18;
  5060   00077C  0E12               	movlw	18
  5061   00077E  6E19               	movwf	motorController@state^0,c
  5062   000780  EFA5  F005         	goto	l589
  5063   000784                     l2597:
  5064                           
  5065                           ;TAD_Controller.c: 278:             if (getButton()) {
  5066   000784  EC78  F00B         	call	_getButton	;wreg free
  5067   000788  0900               	iorlw	0
  5068   00078A  B4D8               	btfsc	status,2,c
  5069   00078C  EFCA  F003         	goto	u1851
  5070   000790  EFCC  F003         	goto	u1850
  5071   000794                     u1851:
  5072   000794  EFA5  F005         	goto	l589
  5073   000798                     u1850:
  5074   000798                     
  5075                           ;TAD_Controller.c: 279:                 uid_ptr = "> LSBank - Exit Requested: ";
  5076   000798  0E68               	movlw	low STR_25
  5077   00079A  6E15               	movwf	_uid_ptr^0,c
  5078   00079C  0E1F               	movlw	high STR_25
  5079   00079E  6E16               	movwf	(_uid_ptr+1)^0,c
  5080   0007A0                     
  5081                           ;TAD_Controller.c: 280:                 state = 19;
  5082   0007A0  0E13               	movlw	19
  5083   0007A2  6E19               	movwf	motorController@state^0,c
  5084   0007A4  EF37  F003         	goto	l2563
  5085   0007A8                     l2605:
  5086                           
  5087                           ;TAD_Controller.c: 285:             if (SIO_TxAvail()) {
  5088   0007A8  EC5E  F00B         	call	_SIO_TxAvail	;wreg free
  5089   0007AC  0900               	iorlw	0
  5090   0007AE  B4D8               	btfsc	status,2,c
  5091   0007B0  EFDC  F003         	goto	u1861
  5092   0007B4  EFDE  F003         	goto	u1860
  5093   0007B8                     u1861:
  5094   0007B8  EFA5  F005         	goto	l589
  5095   0007BC                     u1860:
  5096   0007BC                     
  5097                           ;TAD_Controller.c: 286:                 if (uid_ptr[i] != '\0') {
  5098   0007BC  501F               	movf	_i^0,w,c
  5099   0007BE  2415               	addwf	_uid_ptr^0,w,c
  5100   0007C0  6E4F               	movwf	??_motorController^0,c
  5101   0007C2  0E00               	movlw	0
  5102   0007C4  2016               	addwfc	(_uid_ptr+1)^0,w,c
  5103   0007C6  6E50               	movwf	(??_motorController+1)^0,c
  5104   0007C8  C04F  FFF6         	movff	??_motorController,tblptrl
  5105   0007CC  C050  FFF7         	movff	??_motorController+1,tblptrh
  5106   0007D0                     	if	0	;tblptru may be non-zero
  5107   0007D0                     	endif
  5108   0007D0                     	if	0	;tblptru may be non-zero
  5109   0007D0                     	endif
  5110   0007D0  0008               	tblrd		*
  5111   0007D2  50F5               	movf	tablat,w,c
  5112   0007D4  0900               	iorlw	0
  5113   0007D6  B4D8               	btfsc	status,2,c
  5114   0007D8  EFF0  F003         	goto	u1871
  5115   0007DC  EFF2  F003         	goto	u1870
  5116   0007E0                     u1871:
  5117   0007E0  EF02  F004         	goto	l565
  5118   0007E4                     u1870:
  5119   0007E4                     
  5120                           ;TAD_Controller.c: 287:                     SIO_SendChar(uid_ptr[i]);
  5121   0007E4  501F               	movf	_i^0,w,c
  5122   0007E6  2415               	addwf	_uid_ptr^0,w,c
  5123   0007E8  6E4F               	movwf	??_motorController^0,c
  5124   0007EA  0E00               	movlw	0
  5125   0007EC  2016               	addwfc	(_uid_ptr+1)^0,w,c
  5126   0007EE  6E50               	movwf	(??_motorController+1)^0,c
  5127   0007F0  C04F  FFF6         	movff	??_motorController,tblptrl
  5128   0007F4  C050  FFF7         	movff	??_motorController+1,tblptrh
  5129   0007F8                     	if	0	;tblptru may be non-zero
  5130   0007F8                     	endif
  5131   0007F8                     	if	0	;tblptru may be non-zero
  5132   0007F8                     	endif
  5133   0007F8  0008               	tblrd		*
  5134   0007FA  50F5               	movf	tablat,w,c
  5135   0007FC  EC7D  F00B         	call	_SIO_SendChar
  5136   000800  EF4F  F000         	goto	l2341
  5137   000804                     l565:
  5138                           
  5139                           ;TAD_Controller.c: 290:                     i = 0;
  5140   000804  6A1F               	clrf	_i^0,c
  5141   000806                     
  5142                           ;TAD_Controller.c: 291:                     state = 20;
  5143   000806  0E14               	movlw	20
  5144   000808  6E19               	movwf	motorController@state^0,c
  5145   00080A  EFC9  F002         	goto	l2523
  5146   00080E                     l2617:
  5147                           
  5148                           ;TAD_Controller.c: 297:             if (SIO_CharAvail()) {
  5149   00080E  EC16  F00B         	call	_SIO_CharAvail	;wreg free
  5150   000812  5042               	movf	?_SIO_CharAvail^0,w,c
  5151   000814  1043               	iorwf	(?_SIO_CharAvail+1)^0,w,c
  5152   000816  B4D8               	btfsc	status,2,c
  5153   000818  EF10  F004         	goto	u1881
  5154   00081C  EF12  F004         	goto	u1880
  5155   000820                     u1881:
  5156   000820  EFA5  F005         	goto	l589
  5157   000824                     u1880:
  5158   000824                     
  5159                           ;TAD_Controller.c: 298:                 char c = SIO_GetChar();
  5160   000824  EC99  F00B         	call	_SIO_GetChar	;wreg free
  5161   000828  6E52               	movwf	motorController@c_1197^0,c
  5162   00082A                     
  5163                           ;TAD_Controller.c: 299:                 if (!(c == '\r' || c == '\n')) {
  5164   00082A  0E0D               	movlw	13
  5165   00082C  1852               	xorwf	motorController@c_1197^0,w,c
  5166   00082E  B4D8               	btfsc	status,2,c
  5167   000830  EF1C  F004         	goto	u1891
  5168   000834  EF1E  F004         	goto	u1890
  5169   000838                     u1891:
  5170   000838  EF37  F004         	goto	l2631
  5171   00083C                     u1890:
  5172   00083C  0E0A               	movlw	10
  5173   00083E  1852               	xorwf	motorController@c_1197^0,w,c
  5174   000840  B4D8               	btfsc	status,2,c
  5175   000842  EF25  F004         	goto	u1901
  5176   000846  EF27  F004         	goto	u1900
  5177   00084A                     u1901:
  5178   00084A  EF37  F004         	goto	l2631
  5179   00084E                     u1900:
  5180   00084E                     
  5181                           ;TAD_Controller.c: 300:                     if (yesIdx < 3) {
  5182   00084E  0E03               	movlw	3
  5183   000850  601A               	cpfslt	_yesIdx^0,c
  5184   000852  EF2D  F004         	goto	u1911
  5185   000856  EF2F  F004         	goto	u1910
  5186   00085A                     u1911:
  5187   00085A  EFA5  F005         	goto	l589
  5188   00085E                     u1910:
  5189   00085E                     
  5190                           ;TAD_Controller.c: 301:                         yesBuf[yesIdx++] = c;
  5191   00085E  501A               	movf	_yesIdx^0,w,c
  5192   000860  0F01               	addlw	low _yesBuf
  5193   000862  6ED9               	movwf	fsr2l,c
  5194   000864  6ADA               	clrf	fsr2h,c
  5195   000866  C052  FFDF         	movff	motorController@c_1197,indf2
  5196   00086A  EFFA  F002         	goto	l2537
  5197   00086E                     l2631:
  5198                           
  5199                           ;TAD_Controller.c: 304:                     yesBuf[yesIdx] = '\0';
  5200   00086E  501A               	movf	_yesIdx^0,w,c
  5201   000870  0F01               	addlw	low _yesBuf
  5202   000872  6ED9               	movwf	fsr2l,c
  5203   000874  6ADA               	clrf	fsr2h,c
  5204   000876  6ADF               	clrf	indf2,c
  5205   000878                     
  5206                           ;TAD_Controller.c: 305:                     i = 0;
  5207   000878  6A1F               	clrf	_i^0,c
  5208   00087A                     
  5209                           ;TAD_Controller.c: 306:                     count = 0;
  5210   00087A  6A1D               	clrf	_count@TAD_Controller$F1159^0,c
  5211   00087C                     
  5212                           ;TAD_Controller.c: 307:                     state = 21;
  5213   00087C  0E15               	movlw	21
  5214   00087E  6E19               	movwf	motorController@state^0,c
  5215   000880  EFA5  F005         	goto	l589
  5216   000884                     l2639:
  5217                           
  5218                           ;TAD_Controller.c: 312:             if (yesIdx == 3 && yesBuf[0]=='Y' && yesBuf[1]=='e' 
      +                          && yesBuf[2]=='s') {
  5219   000884  0E03               	movlw	3
  5220   000886  181A               	xorwf	_yesIdx^0,w,c
  5221   000888  A4D8               	btfss	status,2,c
  5222   00088A  EF49  F004         	goto	u1921
  5223   00088E  EF4B  F004         	goto	u1920
  5224   000892                     u1921:
  5225   000892  EF6F  F004         	goto	l2653
  5226   000896                     u1920:
  5227   000896  0E59               	movlw	89
  5228   000898  1801               	xorwf	_yesBuf^0,w,c
  5229   00089A  A4D8               	btfss	status,2,c
  5230   00089C  EF52  F004         	goto	u1931
  5231   0008A0  EF54  F004         	goto	u1930
  5232   0008A4                     u1931:
  5233   0008A4  EF6F  F004         	goto	l2653
  5234   0008A8                     u1930:
  5235   0008A8  0E65               	movlw	101
  5236   0008AA  1802               	xorwf	(_yesBuf+1)^0,w,c
  5237   0008AC  A4D8               	btfss	status,2,c
  5238   0008AE  EF5B  F004         	goto	u1941
  5239   0008B2  EF5D  F004         	goto	u1940
  5240   0008B6                     u1941:
  5241   0008B6  EF6F  F004         	goto	l2653
  5242   0008BA                     u1940:
  5243   0008BA  0E73               	movlw	115
  5244   0008BC  1803               	xorwf	(_yesBuf+2)^0,w,c
  5245   0008BE  A4D8               	btfss	status,2,c
  5246   0008C0  EF64  F004         	goto	u1951
  5247   0008C4  EF66  F004         	goto	u1950
  5248   0008C8                     u1951:
  5249   0008C8  EF6F  F004         	goto	l2653
  5250   0008CC                     u1950:
  5251   0008CC                     
  5252                           ;TAD_Controller.c: 313:                 uid_ptr = "> LSBank - Open both doors\r\n";
  5253   0008CC  0E4B               	movlw	low STR_26
  5254   0008CE  6E15               	movwf	_uid_ptr^0,c
  5255   0008D0  0E1F               	movlw	high STR_26
  5256   0008D2  6E16               	movwf	(_uid_ptr+1)^0,c
  5257   0008D4                     
  5258                           ;TAD_Controller.c: 314:                 i = 0;
  5259   0008D4  6A1F               	clrf	_i^0,c
  5260   0008D6                     
  5261                           ;TAD_Controller.c: 315:                 state = 23;
  5262   0008D6  0E17               	movlw	23
  5263   0008D8  6E19               	movwf	motorController@state^0,c
  5264                           
  5265                           ;TAD_Controller.c: 316:             }
  5266   0008DA  EFA5  F005         	goto	l589
  5267   0008DE                     l2653:
  5268   0008DE  0E02               	movlw	2
  5269   0008E0  181A               	xorwf	_yesIdx^0,w,c
  5270   0008E2  A4D8               	btfss	status,2,c
  5271   0008E4  EF76  F004         	goto	u1961
  5272   0008E8  EF78  F004         	goto	u1960
  5273   0008EC                     u1961:
  5274   0008EC  EF8F  F004         	goto	l2663
  5275   0008F0                     u1960:
  5276   0008F0  0E4E               	movlw	78
  5277   0008F2  1801               	xorwf	_yesBuf^0,w,c
  5278   0008F4  A4D8               	btfss	status,2,c
  5279   0008F6  EF7F  F004         	goto	u1971
  5280   0008FA  EF81  F004         	goto	u1970
  5281   0008FE                     u1971:
  5282   0008FE  EF8F  F004         	goto	l2663
  5283   000902                     u1970:
  5284   000902  0E6F               	movlw	111
  5285   000904  1802               	xorwf	(_yesBuf+1)^0,w,c
  5286   000906  A4D8               	btfss	status,2,c
  5287   000908  EF88  F004         	goto	u1981
  5288   00090C  EF8A  F004         	goto	u1980
  5289   000910                     u1981:
  5290   000910  EF8F  F004         	goto	l2663
  5291   000914                     u1980:
  5292   000914                     
  5293                           ;TAD_Controller.c: 318:                 i = 0;
  5294   000914  6A1F               	clrf	_i^0,c
  5295   000916                     
  5296                           ;TAD_Controller.c: 319:                 state = 22;
  5297   000916  0E16               	movlw	22
  5298   000918  6E19               	movwf	motorController@state^0,c
  5299                           
  5300                           ;TAD_Controller.c: 320:             }
  5301   00091A  EFA5  F005         	goto	l589
  5302   00091E                     l2663:
  5303                           
  5304                           ;TAD_Controller.c: 322:                 uid_ptr = "> LSBank - Exit Requested: ";
  5305   00091E  0E68               	movlw	low STR_25
  5306   000920  6E15               	movwf	_uid_ptr^0,c
  5307   000922  0E1F               	movlw	high STR_25
  5308   000924  6E16               	movwf	(_uid_ptr+1)^0,c
  5309   000926                     
  5310                           ;TAD_Controller.c: 323:                 i = 0;
  5311   000926  6A1F               	clrf	_i^0,c
  5312   000928                     
  5313                           ;TAD_Controller.c: 324:                 state = 19;
  5314   000928  0E13               	movlw	19
  5315   00092A  6E19               	movwf	motorController@state^0,c
  5316   00092C  EFA5  F005         	goto	l589
  5317   000930                     l2669:
  5318                           
  5319                           ;TAD_Controller.c: 328:             setMatrix(0);
  5320   000930  0E00               	movlw	0
  5321   000932  EC8F  F00B         	call	_setMatrix
  5322                           
  5323                           ;TAD_Controller.c: 329:             setStop(1);
  5324   000936  0E01               	movlw	1
  5325   000938  EC87  F00B         	call	_setStop
  5326                           
  5327                           ;TAD_Controller.c: 330:             setIntensity(0);
  5328   00093C  0E00               	movlw	0
  5329   00093E  EC93  F00B         	call	_setIntensity
  5330   000942                     
  5331                           ;TAD_Controller.c: 331:             setAlarm(1);
  5332   000942  0E01               	movlw	1
  5333   000944  ECCC  F00A         	call	_setAlarm
  5334   000948                     
  5335                           ;TAD_Controller.c: 332:             setOK(0);
  5336   000948  0E00               	movlw	0
  5337   00094A  ECF2  F00A         	call	_setOK
  5338   00094E                     
  5339                           ;TAD_Controller.c: 333:             uid_ptr = "> LSBank - Thief intercepted\r\n";
  5340   00094E  0E0E               	movlw	low STR_17
  5341   000950  6E15               	movwf	_uid_ptr^0,c
  5342   000952  0E1F               	movlw	high STR_17
  5343   000954  6E16               	movwf	(_uid_ptr+1)^0,c
  5344   000956  EF77  F001         	goto	l2429
  5345   00095A                     l2681:
  5346                           
  5347                           ;TAD_Controller.c: 338:             if (SIO_TxAvail()) {
  5348   00095A  EC5E  F00B         	call	_SIO_TxAvail	;wreg free
  5349   00095E  0900               	iorlw	0
  5350   000960  B4D8               	btfsc	status,2,c
  5351   000962  EFB5  F004         	goto	u1991
  5352   000966  EFB7  F004         	goto	u1990
  5353   00096A                     u1991:
  5354   00096A  EFA5  F005         	goto	l589
  5355   00096E                     u1990:
  5356   00096E                     
  5357                           ;TAD_Controller.c: 339:                 if (uid_ptr[i] != '\0') {
  5358   00096E  501F               	movf	_i^0,w,c
  5359   000970  2415               	addwf	_uid_ptr^0,w,c
  5360   000972  6E4F               	movwf	??_motorController^0,c
  5361   000974  0E00               	movlw	0
  5362   000976  2016               	addwfc	(_uid_ptr+1)^0,w,c
  5363   000978  6E50               	movwf	(??_motorController+1)^0,c
  5364   00097A  C04F  FFF6         	movff	??_motorController,tblptrl
  5365   00097E  C050  FFF7         	movff	??_motorController+1,tblptrh
  5366   000982                     	if	0	;tblptru may be non-zero
  5367   000982                     	endif
  5368   000982                     	if	0	;tblptru may be non-zero
  5369   000982                     	endif
  5370   000982  0008               	tblrd		*
  5371   000984  50F5               	movf	tablat,w,c
  5372   000986  0900               	iorlw	0
  5373   000988  B4D8               	btfsc	status,2,c
  5374   00098A  EFC9  F004         	goto	u2001
  5375   00098E  EFCB  F004         	goto	u2000
  5376   000992                     u2001:
  5377   000992  EFDB  F004         	goto	l2689
  5378   000996                     u2000:
  5379   000996                     
  5380                           ;TAD_Controller.c: 340:                     SIO_SendChar(uid_ptr[i]);
  5381   000996  501F               	movf	_i^0,w,c
  5382   000998  2415               	addwf	_uid_ptr^0,w,c
  5383   00099A  6E4F               	movwf	??_motorController^0,c
  5384   00099C  0E00               	movlw	0
  5385   00099E  2016               	addwfc	(_uid_ptr+1)^0,w,c
  5386   0009A0  6E50               	movwf	(??_motorController+1)^0,c
  5387   0009A2  C04F  FFF6         	movff	??_motorController,tblptrl
  5388   0009A6  C050  FFF7         	movff	??_motorController+1,tblptrh
  5389   0009AA                     	if	0	;tblptru may be non-zero
  5390   0009AA                     	endif
  5391   0009AA                     	if	0	;tblptru may be non-zero
  5392   0009AA                     	endif
  5393   0009AA  0008               	tblrd		*
  5394   0009AC  50F5               	movf	tablat,w,c
  5395   0009AE  EC7D  F00B         	call	_SIO_SendChar
  5396   0009B2  EF4F  F000         	goto	l2341
  5397   0009B6                     l2689:
  5398                           
  5399                           ;TAD_Controller.c: 343:                     TI_ResetTics(timerHandle);
  5400   0009B6  503A               	movf	_timerHandle@TAD_Controller$F1167^0,w,c
  5401   0009B8  EC04  F00B         	call	_TI_ResetTics
  5402                           
  5403                           ;TAD_Controller.c: 344:                     speaker_sound(1, 200);
  5404   0009BC  0E00               	movlw	0
  5405   0009BE  6E44               	movwf	(speaker_sound@duracion_ms+1)^0,c
  5406   0009C0  0EC8               	movlw	200
  5407   0009C2  6E43               	movwf	speaker_sound@duracion_ms^0,c
  5408   0009C4  0E01               	movlw	1
  5409   0009C6  EC69  F009         	call	_speaker_sound
  5410   0009CA                     
  5411                           ;TAD_Controller.c: 345:                     state = 24;
  5412   0009CA  0E18               	movlw	24
  5413   0009CC  6E19               	movwf	motorController@state^0,c
  5414   0009CE  EFA5  F005         	goto	l589
  5415   0009D2                     l2693:
  5416                           
  5417                           ;TAD_Controller.c: 350:             if (TI_GetTics(timerHandle) >= 1000) {
  5418   0009D2  503A               	movf	_timerHandle@TAD_Controller$F1167^0,w,c
  5419   0009D4  EC01  F00A         	call	_TI_GetTics
  5420   0009D8  5045               	movf	(?_TI_GetTics+3)^0,w,c
  5421   0009DA  1044               	iorwf	(?_TI_GetTics+2)^0,w,c
  5422   0009DC  E10B               	bnz	u2010
  5423   0009DE  0EE8               	movlw	232
  5424   0009E0  5C42               	subwf	?_TI_GetTics^0,w,c
  5425   0009E2  0E03               	movlw	3
  5426   0009E4  5843               	subwfb	(?_TI_GetTics+1)^0,w,c
  5427   0009E6  A0D8               	btfss	status,0,c
  5428   0009E8  EFF8  F004         	goto	u2011
  5429   0009EC  EFFA  F004         	goto	u2010
  5430   0009F0                     u2011:
  5431   0009F0  EFA5  F005         	goto	l589
  5432   0009F4                     u2010:
  5433   0009F4                     
  5434                           ;TAD_Controller.c: 351:                 i = 0;
  5435   0009F4  6A1F               	clrf	_i^0,c
  5436   0009F6                     
  5437                           ;TAD_Controller.c: 352:                 uid_ptr = "> LSBank - Close both doors\r\n";
  5438   0009F6  0E2D               	movlw	low STR_29
  5439   0009F8  6E15               	movwf	_uid_ptr^0,c
  5440   0009FA  0E1F               	movlw	high STR_29
  5441   0009FC  6E16               	movwf	(_uid_ptr+1)^0,c
  5442   0009FE                     
  5443                           ;TAD_Controller.c: 353:                 state = 25;
  5444   0009FE  0E19               	movlw	25
  5445   000A00  6E19               	movwf	motorController@state^0,c
  5446   000A02  EFA5  F005         	goto	l589
  5447   000A06                     l2701:
  5448                           
  5449                           ;TAD_Controller.c: 357:             if (SIO_TxAvail()) {
  5450   000A06  EC5E  F00B         	call	_SIO_TxAvail	;wreg free
  5451   000A0A  0900               	iorlw	0
  5452   000A0C  B4D8               	btfsc	status,2,c
  5453   000A0E  EF0B  F005         	goto	u2021
  5454   000A12  EF0D  F005         	goto	u2020
  5455   000A16                     u2021:
  5456   000A16  EFA5  F005         	goto	l589
  5457   000A1A                     u2020:
  5458   000A1A                     
  5459                           ;TAD_Controller.c: 358:                 if (uid_ptr[i] != '\0') {
  5460   000A1A  501F               	movf	_i^0,w,c
  5461   000A1C  2415               	addwf	_uid_ptr^0,w,c
  5462   000A1E  6E4F               	movwf	??_motorController^0,c
  5463   000A20  0E00               	movlw	0
  5464   000A22  2016               	addwfc	(_uid_ptr+1)^0,w,c
  5465   000A24  6E50               	movwf	(??_motorController+1)^0,c
  5466   000A26  C04F  FFF6         	movff	??_motorController,tblptrl
  5467   000A2A  C050  FFF7         	movff	??_motorController+1,tblptrh
  5468   000A2E                     	if	0	;tblptru may be non-zero
  5469   000A2E                     	endif
  5470   000A2E                     	if	0	;tblptru may be non-zero
  5471   000A2E                     	endif
  5472   000A2E  0008               	tblrd		*
  5473   000A30  50F5               	movf	tablat,w,c
  5474   000A32  0900               	iorlw	0
  5475   000A34  B4D8               	btfsc	status,2,c
  5476   000A36  EF1F  F005         	goto	u2031
  5477   000A3A  EF21  F005         	goto	u2030
  5478   000A3E                     u2031:
  5479   000A3E  EF31  F005         	goto	l586
  5480   000A42                     u2030:
  5481   000A42                     
  5482                           ;TAD_Controller.c: 359:                     SIO_SendChar(uid_ptr[i]);
  5483   000A42  501F               	movf	_i^0,w,c
  5484   000A44  2415               	addwf	_uid_ptr^0,w,c
  5485   000A46  6E4F               	movwf	??_motorController^0,c
  5486   000A48  0E00               	movlw	0
  5487   000A4A  2016               	addwfc	(_uid_ptr+1)^0,w,c
  5488   000A4C  6E50               	movwf	(??_motorController+1)^0,c
  5489   000A4E  C04F  FFF6         	movff	??_motorController,tblptrl
  5490   000A52  C050  FFF7         	movff	??_motorController+1,tblptrh
  5491   000A56                     	if	0	;tblptru may be non-zero
  5492   000A56                     	endif
  5493   000A56                     	if	0	;tblptru may be non-zero
  5494   000A56                     	endif
  5495   000A56  0008               	tblrd		*
  5496   000A58  50F5               	movf	tablat,w,c
  5497   000A5A  EC7D  F00B         	call	_SIO_SendChar
  5498   000A5E  EF4F  F000         	goto	l2341
  5499   000A62                     l586:
  5500                           
  5501                           ;TAD_Controller.c: 362:                     i = 0;
  5502   000A62  6A1F               	clrf	_i^0,c
  5503   000A64                     
  5504                           ;TAD_Controller.c: 363:                     state = 26;
  5505   000A64  0E1A               	movlw	26
  5506   000A66  6E19               	movwf	motorController@state^0,c
  5507   000A68  EFA5  F005         	goto	l589
  5508   000A6C                     l2713:
  5509   000A6C  5019               	movf	motorController@state^0,w,c
  5510                           
  5511                           ; Switch size 1, requested type "simple"
  5512                           ; Number of cases is 27, Range of values is 0 to 26
  5513                           ; switch strategies available:
  5514                           ; Name         Instructions Cycles
  5515                           ; simple_byte           82    42 (average)
  5516                           ;	Chosen strategy is simple_byte
  5517   000A6E  0A00               	xorlw	0	; case 0
  5518   000A70  B4D8               	btfsc	status,2,c
  5519   000A72  EF14  F000         	goto	l2325
  5520   000A76  0A01               	xorlw	1	; case 1
  5521   000A78  B4D8               	btfsc	status,2,c
  5522   000A7A  EF23  F000         	goto	l2335
  5523   000A7E  0A03               	xorlw	3	; case 2
  5524   000A80  B4D8               	btfsc	status,2,c
  5525   000A82  EF57  F000         	goto	l2345
  5526   000A86  0A01               	xorlw	1	; case 3
  5527   000A88  B4D8               	btfsc	status,2,c
  5528   000A8A  EF71  F000         	goto	l2355
  5529   000A8E  0A07               	xorlw	7	; case 4
  5530   000A90  B4D8               	btfsc	status,2,c
  5531   000A92  EFA7  F000         	goto	l2367
  5532   000A96  0A01               	xorlw	1	; case 5
  5533   000A98  B4D8               	btfsc	status,2,c
  5534   000A9A  EFC1  F000         	goto	l2375
  5535   000A9E  0A03               	xorlw	3	; case 6
  5536   000AA0  B4D8               	btfsc	status,2,c
  5537   000AA2  EFF8  F000         	goto	l2387
  5538   000AA6  0A01               	xorlw	1	; case 7
  5539   000AA8  B4D8               	btfsc	status,2,c
  5540   000AAA  EF38  F001         	goto	l2407
  5541   000AAE  0A0F               	xorlw	15	; case 8
  5542   000AB0  B4D8               	btfsc	status,2,c
  5543   000AB2  EF7C  F001         	goto	l2433
  5544   000AB6  0A01               	xorlw	1	; case 9
  5545   000AB8  B4D8               	btfsc	status,2,c
  5546   000ABA  EFC2  F001         	goto	l2457
  5547   000ABE  0A03               	xorlw	3	; case 10
  5548   000AC0  B4D8               	btfsc	status,2,c
  5549   000AC2  EF27  F002         	goto	l2487
  5550   000AC6  0A01               	xorlw	1	; case 11
  5551   000AC8  B4D8               	btfsc	status,2,c
  5552   000ACA  EF5A  F002         	goto	l2497
  5553   000ACE  0A07               	xorlw	7	; case 12
  5554   000AD0  B4D8               	btfsc	status,2,c
  5555   000AD2  EF98  F002         	goto	l2513
  5556   000AD6  0A01               	xorlw	1	; case 13
  5557   000AD8  B4D8               	btfsc	status,2,c
  5558   000ADA  EFCC  F002         	goto	l2525
  5559   000ADE  0A03               	xorlw	3	; case 14
  5560   000AE0  B4D8               	btfsc	status,2,c
  5561   000AE2  EF08  F003         	goto	l2547
  5562   000AE6  0A01               	xorlw	1	; case 15
  5563   000AE8  B4D8               	btfsc	status,2,c
  5564   000AEA  EF3A  F003         	goto	l2565
  5565   000AEE  0A1F               	xorlw	31	; case 16
  5566   000AF0  B4D8               	btfsc	status,2,c
  5567   000AF2  EF6F  F003         	goto	l2577
  5568   000AF6  0A01               	xorlw	1	; case 17
  5569   000AF8  B4D8               	btfsc	status,2,c
  5570   000AFA  EF89  F003         	goto	l2585
  5571   000AFE  0A03               	xorlw	3	; case 18
  5572   000B00  B4D8               	btfsc	status,2,c
  5573   000B02  EFC2  F003         	goto	l2597
  5574   000B06  0A01               	xorlw	1	; case 19
  5575   000B08  B4D8               	btfsc	status,2,c
  5576   000B0A  EFD4  F003         	goto	l2605
  5577   000B0E  0A07               	xorlw	7	; case 20
  5578   000B10  B4D8               	btfsc	status,2,c
  5579   000B12  EF07  F004         	goto	l2617
  5580   000B16  0A01               	xorlw	1	; case 21
  5581   000B18  B4D8               	btfsc	status,2,c
  5582   000B1A  EF42  F004         	goto	l2639
  5583   000B1E  0A03               	xorlw	3	; case 22
  5584   000B20  B4D8               	btfsc	status,2,c
  5585   000B22  EF98  F004         	goto	l2669
  5586   000B26  0A01               	xorlw	1	; case 23
  5587   000B28  B4D8               	btfsc	status,2,c
  5588   000B2A  EFAD  F004         	goto	l2681
  5589   000B2E  0A0F               	xorlw	15	; case 24
  5590   000B30  B4D8               	btfsc	status,2,c
  5591   000B32  EFE9  F004         	goto	l2693
  5592   000B36  0A01               	xorlw	1	; case 25
  5593   000B38  B4D8               	btfsc	status,2,c
  5594   000B3A  EF03  F005         	goto	l2701
  5595   000B3E  0A03               	xorlw	3	; case 26
  5596   000B40  B4D8               	btfsc	status,2,c
  5597   000B42  EFA5  F005         	goto	l589
  5598   000B46  EFA5  F005         	goto	l589
  5599   000B4A                     l589:
  5600   000B4A  0012               	return		;funcret
  5601   000B4C                     __end_of_motorController:
  5602                           	callstack 0
  5603                           
  5604 ;; *************** function _speaker_sound *****************
  5605 ;; Defined at:
  5606 ;;		line 46 in file "TAD_Speaker.c"
  5607 ;; Parameters:    Size  Location     Type
  5608 ;;  tipo            1    wreg     unsigned char 
  5609 ;;  duracion_ms     2    1[COMRAM] unsigned int 
  5610 ;; Auto vars:     Size  Location     Type
  5611 ;;  tipo            1    7[COMRAM] unsigned char 
  5612 ;; Return value:  Size  Location     Type
  5613 ;;                  1    wreg      void 
  5614 ;; Registers used:
  5615 ;;		wreg, fsr2l, fsr2h, status,2, status,0, prodl, prodh, cstack
  5616 ;; Tracked objects:
  5617 ;;		On entry : 0/0
  5618 ;;		On exit  : 0/0
  5619 ;;		Unchanged: 0/0
  5620 ;; Data sizes:     COMRAM   BANK0   BANK1
  5621 ;;      Params:         2       0       0
  5622 ;;      Locals:         3       0       0
  5623 ;;      Temps:          4       0       0
  5624 ;;      Totals:         9       0       0
  5625 ;;Total ram usage:        9 bytes
  5626 ;; Hardware stack levels used: 1
  5627 ;; Hardware stack levels required when called: 3
  5628 ;; This function calls:
  5629 ;;		_TI_ResetTics
  5630 ;; This function is called by:
  5631 ;;		_motorSpeaker
  5632 ;;		_motorController
  5633 ;; This function uses a non-reentrant model
  5634 ;;
  5635                           
  5636                           	psect	text10
  5637   0012D2                     __ptext10:
  5638                           	callstack 0
  5639   0012D2                     _speaker_sound:
  5640                           	callstack 26
  5641                           
  5642                           ;incstack = 0
  5643                           ;speaker_sound@tipo stored from wreg
  5644   0012D2  6E49               	movwf	speaker_sound@tipo^0,c
  5645   0012D4                     
  5646                           ;TAD_Speaker.c: 47:     if (soundActive) {
  5647   0012D4  5036               	movf	_soundActive^0,w,c
  5648   0012D6  B4D8               	btfsc	status,2,c
  5649   0012D8  EF70  F009         	goto	u1341
  5650   0012DC  EF72  F009         	goto	u1340
  5651   0012E0                     u1341:
  5652   0012E0  EF74  F009         	goto	l2213
  5653   0012E4                     u1340:
  5654   0012E4  EFA6  F009         	goto	l121
  5655   0012E8                     l2213:
  5656                           
  5657                           ;TAD_Speaker.c: 51:     soundActive = 1;
  5658   0012E8  0E01               	movlw	1
  5659   0012EA  6E36               	movwf	_soundActive^0,c
  5660   0012EC                     
  5661                           ;TAD_Speaker.c: 52:     LATCbits.LATC3 = 0;
  5662   0012EC  968B               	bcf	139,3,c	;volatile
  5663   0012EE                     
  5664                           ;TAD_Speaker.c: 53:     soundDuration = (duracion_ms + 1) / 2;
  5665   0012EE  0E01               	movlw	1
  5666   0012F0  2443               	addwf	speaker_sound@duracion_ms^0,w,c
  5667   0012F2  6E45               	movwf	??_speaker_sound^0,c
  5668   0012F4  0E00               	movlw	0
  5669   0012F6  2044               	addwfc	(speaker_sound@duracion_ms+1)^0,w,c
  5670   0012F8  6E46               	movwf	(??_speaker_sound+1)^0,c
  5671   0012FA  90D8               	bcf	status,0,c
  5672   0012FC  3046               	rrcf	(??_speaker_sound+1)^0,w,c
  5673   0012FE  6E48               	movwf	(??_speaker_sound+3)^0,c
  5674   001300  3045               	rrcf	??_speaker_sound^0,w,c
  5675   001302  6E47               	movwf	(??_speaker_sound+2)^0,c
  5676   001304  C047  F00D         	movff	??_speaker_sound+2,_soundDuration
  5677   001308  C048  F00E         	movff	??_speaker_sound+3,_soundDuration+1
  5678   00130C  6A0F               	clrf	(_soundDuration+2)^0,c
  5679   00130E  6A10               	clrf	(_soundDuration+3)^0,c
  5680   001310                     
  5681                           ;TAD_Speaker.c: 55:     soundPeriod = (tipo == 0) ? 2 : 1;
  5682   001310  5049               	movf	speaker_sound@tipo^0,w,c
  5683   001312  B4D8               	btfsc	status,2,c
  5684   001314  EF8E  F009         	goto	u1351
  5685   001318  EF90  F009         	goto	u1350
  5686   00131C                     u1351:
  5687   00131C  EF96  F009         	goto	l2223
  5688   001320                     u1350:
  5689   001320  0E00               	movlw	0
  5690   001322  6E4B               	movwf	(_speaker_sound$325+1)^0,c
  5691   001324  0E01               	movlw	1
  5692   001326  6E4A               	movwf	_speaker_sound$325^0,c
  5693   001328  EF9A  F009         	goto	l2225
  5694   00132C                     l2223:
  5695   00132C  0E00               	movlw	0
  5696   00132E  6E4B               	movwf	(_speaker_sound$325+1)^0,c
  5697   001330  0E02               	movlw	2
  5698   001332  6E4A               	movwf	_speaker_sound$325^0,c
  5699   001334                     l2225:
  5700   001334  C04A  F009         	movff	_speaker_sound$325,_soundPeriod
  5701   001338  C04B  F00A         	movff	_speaker_sound$325+1,_soundPeriod+1
  5702   00133C  0E00               	movlw	0
  5703   00133E  BE0A               	btfsc	(_soundPeriod+1)^0,7,c
  5704   001340  0EFF               	movlw	-1
  5705   001342  6E0B               	movwf	(_soundPeriod+2)^0,c
  5706   001344  6E0C               	movwf	(_soundPeriod+3)^0,c
  5707   001346                     
  5708                           ;TAD_Speaker.c: 57:     TI_ResetTics(soundTimerHandle);
  5709   001346  5040               	movf	_soundTimerHandle^0,w,c
  5710   001348  EC04  F00B         	call	_TI_ResetTics
  5711   00134C                     l121:
  5712   00134C  0012               	return		;funcret
  5713   00134E                     __end_of_speaker_sound:
  5714                           	callstack 0
  5715                           
  5716 ;; *************** function _setStop *****************
  5717 ;; Defined at:
  5718 ;;		line 33 in file "TAD_Speaker.c"
  5719 ;; Parameters:    Size  Location     Type
  5720 ;;  st              1    wreg     unsigned char 
  5721 ;; Auto vars:     Size  Location     Type
  5722 ;;  st              1    0[COMRAM] unsigned char 
  5723 ;; Return value:  Size  Location     Type
  5724 ;;                  1    wreg      void 
  5725 ;; Registers used:
  5726 ;;		wreg
  5727 ;; Tracked objects:
  5728 ;;		On entry : 0/0
  5729 ;;		On exit  : 0/0
  5730 ;;		Unchanged: 0/0
  5731 ;; Data sizes:     COMRAM   BANK0   BANK1
  5732 ;;      Params:         0       0       0
  5733 ;;      Locals:         1       0       0
  5734 ;;      Temps:          0       0       0
  5735 ;;      Totals:         1       0       0
  5736 ;;Total ram usage:        1 bytes
  5737 ;; Hardware stack levels used: 1
  5738 ;; Hardware stack levels required when called: 2
  5739 ;; This function calls:
  5740 ;;		Nothing
  5741 ;; This function is called by:
  5742 ;;		_motorController
  5743 ;; This function uses a non-reentrant model
  5744 ;;
  5745                           
  5746                           	psect	text11
  5747   00170E                     __ptext11:
  5748                           	callstack 0
  5749   00170E                     _setStop:
  5750                           	callstack 27
  5751                           
  5752                           ;incstack = 0
  5753                           ;setStop@st stored from wreg
  5754   00170E  6E42               	movwf	setStop@st^0,c
  5755   001710                     
  5756                           ;TAD_Speaker.c: 34:     stop = st;
  5757   001710  C042  F037         	movff	setStop@st,_stop
  5758   001714  0012               	return		;funcret
  5759   001716                     __end_of_setStop:
  5760                           	callstack 0
  5761                           
  5762 ;; *************** function _setSpeaker *****************
  5763 ;; Defined at:
  5764 ;;		line 29 in file "TAD_Speaker.c"
  5765 ;; Parameters:    Size  Location     Type
  5766 ;;  st              1    wreg     unsigned char 
  5767 ;; Auto vars:     Size  Location     Type
  5768 ;;  st              1    0[COMRAM] unsigned char 
  5769 ;; Return value:  Size  Location     Type
  5770 ;;                  1    wreg      void 
  5771 ;; Registers used:
  5772 ;;		wreg
  5773 ;; Tracked objects:
  5774 ;;		On entry : 0/0
  5775 ;;		On exit  : 0/0
  5776 ;;		Unchanged: 0/0
  5777 ;; Data sizes:     COMRAM   BANK0   BANK1
  5778 ;;      Params:         0       0       0
  5779 ;;      Locals:         1       0       0
  5780 ;;      Temps:          0       0       0
  5781 ;;      Totals:         1       0       0
  5782 ;;Total ram usage:        1 bytes
  5783 ;; Hardware stack levels used: 1
  5784 ;; Hardware stack levels required when called: 2
  5785 ;; This function calls:
  5786 ;;		Nothing
  5787 ;; This function is called by:
  5788 ;;		_motorController
  5789 ;; This function uses a non-reentrant model
  5790 ;;
  5791                           
  5792                           	psect	text12
  5793   001716                     __ptext12:
  5794                           	callstack 0
  5795   001716                     _setSpeaker:
  5796                           	callstack 27
  5797                           
  5798                           ;incstack = 0
  5799                           ;setSpeaker@st stored from wreg
  5800   001716  6E42               	movwf	setSpeaker@st^0,c
  5801   001718                     
  5802                           ;TAD_Speaker.c: 30:     start = st;
  5803   001718  C042  F038         	movff	setSpeaker@st,_start
  5804   00171C  0012               	return		;funcret
  5805   00171E                     __end_of_setSpeaker:
  5806                           	callstack 0
  5807                           
  5808 ;; *************** function _setOK *****************
  5809 ;; Defined at:
  5810 ;;		line 30 in file "TAD_LEDS.c"
  5811 ;; Parameters:    Size  Location     Type
  5812 ;;  aux             1    wreg     unsigned char 
  5813 ;; Auto vars:     Size  Location     Type
  5814 ;;  aux             1    1[COMRAM] unsigned char 
  5815 ;; Return value:  Size  Location     Type
  5816 ;;                  1    wreg      void 
  5817 ;; Registers used:
  5818 ;;		wreg, status,2, status,0
  5819 ;; Tracked objects:
  5820 ;;		On entry : 0/0
  5821 ;;		On exit  : 0/0
  5822 ;;		Unchanged: 0/0
  5823 ;; Data sizes:     COMRAM   BANK0   BANK1
  5824 ;;      Params:         0       0       0
  5825 ;;      Locals:         1       0       0
  5826 ;;      Temps:          1       0       0
  5827 ;;      Totals:         2       0       0
  5828 ;;Total ram usage:        2 bytes
  5829 ;; Hardware stack levels used: 1
  5830 ;; Hardware stack levels required when called: 2
  5831 ;; This function calls:
  5832 ;;		Nothing
  5833 ;; This function is called by:
  5834 ;;		_motorController
  5835 ;; This function uses a non-reentrant model
  5836 ;;
  5837                           
  5838                           	psect	text13
  5839   0015E4                     __ptext13:
  5840                           	callstack 0
  5841   0015E4                     _setOK:
  5842                           	callstack 27
  5843                           
  5844                           ;incstack = 0
  5845                           ;setOK@aux stored from wreg
  5846   0015E4  6E43               	movwf	setOK@aux^0,c
  5847   0015E6                     
  5848                           ;TAD_LEDS.c: 31:     LATDbits.LATD0 = (aux ? 1 : 0);
  5849   0015E6  5043               	movf	setOK@aux^0,w,c
  5850   0015E8  A4D8               	btfss	status,2,c
  5851   0015EA  EFF9  F00A         	goto	u121
  5852   0015EE  EFFD  F00A         	goto	u120
  5853   0015F2                     u121:
  5854   0015F2  6A42               	clrf	??_setOK^0,c
  5855   0015F4  2A42               	incf	??_setOK^0,f,c
  5856   0015F6  EFFE  F00A         	goto	u138
  5857   0015FA                     u120:
  5858   0015FA  6A42               	clrf	??_setOK^0,c
  5859   0015FC                     u138:
  5860   0015FC  508C               	movf	140,w,c	;volatile
  5861   0015FE  1842               	xorwf	??_setOK^0,w,c
  5862   001600  0BFE               	andlw	-2
  5863   001602  1842               	xorwf	??_setOK^0,w,c
  5864   001604  6E8C               	movwf	140,c	;volatile
  5865   001606  0012               	return		;funcret
  5866   001608                     __end_of_setOK:
  5867                           	callstack 0
  5868                           
  5869 ;; *************** function _setMatrix *****************
  5870 ;; Defined at:
  5871 ;;		line 91 in file "TAD_Matrix.c"
  5872 ;; Parameters:    Size  Location     Type
  5873 ;;  st              1    wreg     unsigned char 
  5874 ;; Auto vars:     Size  Location     Type
  5875 ;;  st              1    0[COMRAM] unsigned char 
  5876 ;; Return value:  Size  Location     Type
  5877 ;;                  1    wreg      void 
  5878 ;; Registers used:
  5879 ;;		wreg
  5880 ;; Tracked objects:
  5881 ;;		On entry : 0/0
  5882 ;;		On exit  : 0/0
  5883 ;;		Unchanged: 0/0
  5884 ;; Data sizes:     COMRAM   BANK0   BANK1
  5885 ;;      Params:         0       0       0
  5886 ;;      Locals:         1       0       0
  5887 ;;      Temps:          0       0       0
  5888 ;;      Totals:         1       0       0
  5889 ;;Total ram usage:        1 bytes
  5890 ;; Hardware stack levels used: 1
  5891 ;; Hardware stack levels required when called: 2
  5892 ;; This function calls:
  5893 ;;		Nothing
  5894 ;; This function is called by:
  5895 ;;		_motorController
  5896 ;; This function uses a non-reentrant model
  5897 ;;
  5898                           
  5899                           	psect	text14
  5900   00171E                     __ptext14:
  5901                           	callstack 0
  5902   00171E                     _setMatrix:
  5903                           	callstack 27
  5904                           
  5905                           ;incstack = 0
  5906                           ;setMatrix@st stored from wreg
  5907   00171E  6E42               	movwf	setMatrix@st^0,c
  5908   001720                     
  5909                           ;TAD_Matrix.c: 92:     start = st;
  5910   001720  C042  F025         	movff	setMatrix@st,_start@TAD_Matrix$F1042
  5911   001724  0012               	return		;funcret
  5912   001726                     __end_of_setMatrix:
  5913                           	callstack 0
  5914                           
  5915 ;; *************** function _setIntensity *****************
  5916 ;; Defined at:
  5917 ;;		line 26 in file "TAD_LEDS.c"
  5918 ;; Parameters:    Size  Location     Type
  5919 ;;  aux             1    wreg     unsigned char 
  5920 ;; Auto vars:     Size  Location     Type
  5921 ;;  aux             1    0[COMRAM] unsigned char 
  5922 ;; Return value:  Size  Location     Type
  5923 ;;                  1    wreg      void 
  5924 ;; Registers used:
  5925 ;;		wreg
  5926 ;; Tracked objects:
  5927 ;;		On entry : 0/0
  5928 ;;		On exit  : 0/0
  5929 ;;		Unchanged: 0/0
  5930 ;; Data sizes:     COMRAM   BANK0   BANK1
  5931 ;;      Params:         0       0       0
  5932 ;;      Locals:         1       0       0
  5933 ;;      Temps:          0       0       0
  5934 ;;      Totals:         1       0       0
  5935 ;;Total ram usage:        1 bytes
  5936 ;; Hardware stack levels used: 1
  5937 ;; Hardware stack levels required when called: 2
  5938 ;; This function calls:
  5939 ;;		Nothing
  5940 ;; This function is called by:
  5941 ;;		_motorController
  5942 ;; This function uses a non-reentrant model
  5943 ;;
  5944                           
  5945                           	psect	text15
  5946   001726                     __ptext15:
  5947                           	callstack 0
  5948   001726                     _setIntensity:
  5949                           	callstack 27
  5950                           
  5951                           ;incstack = 0
  5952                           ;setIntensity@aux stored from wreg
  5953   001726  6E42               	movwf	setIntensity@aux^0,c
  5954   001728                     
  5955                           ;TAD_LEDS.c: 27:     flag = aux;
  5956   001728  C042  F032         	movff	setIntensity@aux,_flag
  5957   00172C  0012               	return		;funcret
  5958   00172E                     __end_of_setIntensity:
  5959                           	callstack 0
  5960                           
  5961 ;; *************** function _setAlarm *****************
  5962 ;; Defined at:
  5963 ;;		line 34 in file "TAD_LEDS.c"
  5964 ;; Parameters:    Size  Location     Type
  5965 ;;  aux             1    wreg     unsigned char 
  5966 ;; Auto vars:     Size  Location     Type
  5967 ;;  aux             1    1[COMRAM] unsigned char 
  5968 ;; Return value:  Size  Location     Type
  5969 ;;                  1    wreg      void 
  5970 ;; Registers used:
  5971 ;;		wreg, status,2, status,0
  5972 ;; Tracked objects:
  5973 ;;		On entry : 0/0
  5974 ;;		On exit  : 0/0
  5975 ;;		Unchanged: 0/0
  5976 ;; Data sizes:     COMRAM   BANK0   BANK1
  5977 ;;      Params:         0       0       0
  5978 ;;      Locals:         1       0       0
  5979 ;;      Temps:          1       0       0
  5980 ;;      Totals:         2       0       0
  5981 ;;Total ram usage:        2 bytes
  5982 ;; Hardware stack levels used: 1
  5983 ;; Hardware stack levels required when called: 2
  5984 ;; This function calls:
  5985 ;;		Nothing
  5986 ;; This function is called by:
  5987 ;;		_motorController
  5988 ;; This function uses a non-reentrant model
  5989 ;;
  5990                           
  5991                           	psect	text16
  5992   001598                     __ptext16:
  5993                           	callstack 0
  5994   001598                     _setAlarm:
  5995                           	callstack 27
  5996                           
  5997                           ;incstack = 0
  5998                           ;setAlarm@aux stored from wreg
  5999   001598  6E43               	movwf	setAlarm@aux^0,c
  6000   00159A                     
  6001                           ;TAD_LEDS.c: 35:     LATDbits.LATD1 = (aux ? 1 : 0);
  6002   00159A  5043               	movf	setAlarm@aux^0,w,c
  6003   00159C  A4D8               	btfss	status,2,c
  6004   00159E  EFD3  F00A         	goto	u141
  6005   0015A2  EFD7  F00A         	goto	u140
  6006   0015A6                     u141:
  6007   0015A6  6A42               	clrf	??_setAlarm^0,c
  6008   0015A8  2A42               	incf	??_setAlarm^0,f,c
  6009   0015AA  EFD8  F00A         	goto	u158
  6010   0015AE                     u140:
  6011   0015AE  6A42               	clrf	??_setAlarm^0,c
  6012   0015B0                     u158:
  6013   0015B0  4642               	rlncf	??_setAlarm^0,f,c
  6014   0015B2  508C               	movf	140,w,c	;volatile
  6015   0015B4  1842               	xorwf	??_setAlarm^0,w,c
  6016   0015B6  0BFD               	andlw	-3
  6017   0015B8  1842               	xorwf	??_setAlarm^0,w,c
  6018   0015BA  6E8C               	movwf	140,c	;volatile
  6019   0015BC  0012               	return		;funcret
  6020   0015BE                     __end_of_setAlarm:
  6021                           	callstack 0
  6022                           
  6023 ;; *************** function _passwordSet *****************
  6024 ;; Defined at:
  6025 ;;		line 81 in file "TAD_Matrix.c"
  6026 ;; Parameters:    Size  Location     Type
  6027 ;;		None
  6028 ;; Auto vars:     Size  Location     Type
  6029 ;;  aux             1    0[COMRAM] unsigned char 
  6030 ;; Return value:  Size  Location     Type
  6031 ;;                  1    wreg      unsigned char 
  6032 ;; Registers used:
  6033 ;;		wreg, status,2
  6034 ;; Tracked objects:
  6035 ;;		On entry : 0/0
  6036 ;;		On exit  : 0/0
  6037 ;;		Unchanged: 0/0
  6038 ;; Data sizes:     COMRAM   BANK0   BANK1
  6039 ;;      Params:         0       0       0
  6040 ;;      Locals:         1       0       0
  6041 ;;      Temps:          0       0       0
  6042 ;;      Totals:         1       0       0
  6043 ;;Total ram usage:        1 bytes
  6044 ;; Hardware stack levels used: 1
  6045 ;; Hardware stack levels required when called: 2
  6046 ;; This function calls:
  6047 ;;		Nothing
  6048 ;; This function is called by:
  6049 ;;		_motorController
  6050 ;; This function uses a non-reentrant model
  6051 ;;
  6052                           
  6053                           	psect	text17
  6054   0016DC                     __ptext17:
  6055                           	callstack 0
  6056   0016DC                     _passwordSet:
  6057                           	callstack 27
  6058   0016DC                     
  6059                           ;TAD_Matrix.c: 82:     unsigned char aux = flag;
  6060   0016DC  C023  F042         	movff	_flag@TAD_Matrix$F1045,passwordSet@aux
  6061                           
  6062                           ;TAD_Matrix.c: 83:     flag = 0;
  6063   0016E0  6A23               	clrf	_flag@TAD_Matrix$F1045^0,c
  6064   0016E2                     
  6065                           ;TAD_Matrix.c: 84:     return aux;
  6066   0016E2  5042               	movf	passwordSet@aux^0,w,c
  6067   0016E4  0012               	return		;funcret
  6068   0016E6                     __end_of_passwordSet:
  6069                           	callstack 0
  6070                           
  6071 ;; *************** function _getPassword *****************
  6072 ;; Defined at:
  6073 ;;		line 87 in file "TAD_Matrix.c"
  6074 ;; Parameters:    Size  Location     Type
  6075 ;;		None
  6076 ;; Auto vars:     Size  Location     Type
  6077 ;;		None
  6078 ;; Return value:  Size  Location     Type
  6079 ;;                  1    0[COMRAM] PTR unsigned char 
  6080 ;; Registers used:
  6081 ;;		wreg
  6082 ;; Tracked objects:
  6083 ;;		On entry : 0/0
  6084 ;;		On exit  : 0/0
  6085 ;;		Unchanged: 0/0
  6086 ;; Data sizes:     COMRAM   BANK0   BANK1
  6087 ;;      Params:         2       0       0
  6088 ;;      Locals:         0       0       0
  6089 ;;      Temps:          0       0       0
  6090 ;;      Totals:         2       0       0
  6091 ;;Total ram usage:        2 bytes
  6092 ;; Hardware stack levels used: 1
  6093 ;; Hardware stack levels required when called: 2
  6094 ;; This function calls:
  6095 ;;		Nothing
  6096 ;; This function is called by:
  6097 ;;		_motorController
  6098 ;; This function uses a non-reentrant model
  6099 ;;
  6100                           
  6101                           	psect	text18
  6102   00172E                     __ptext18:
  6103                           	callstack 0
  6104   00172E                     _getPassword:
  6105                           	callstack 27
  6106   00172E                     
  6107                           ;TAD_Matrix.c: 88:     return password;
  6108   00172E  0E63               	movlw	_password& (0+255)
  6109   001730  0012               	return		;funcret
  6110   001732                     __end_of_getPassword:
  6111                           	callstack 0
  6112                           
  6113 ;; *************** function _getHall *****************
  6114 ;; Defined at:
  6115 ;;		line 17 in file "TAD_Hall.c"
  6116 ;; Parameters:    Size  Location     Type
  6117 ;;		None
  6118 ;; Auto vars:     Size  Location     Type
  6119 ;;  aux             1    0[COMRAM] unsigned char 
  6120 ;; Return value:  Size  Location     Type
  6121 ;;                  1    wreg      unsigned char 
  6122 ;; Registers used:
  6123 ;;		wreg, status,2
  6124 ;; Tracked objects:
  6125 ;;		On entry : 0/0
  6126 ;;		On exit  : 0/0
  6127 ;;		Unchanged: 0/0
  6128 ;; Data sizes:     COMRAM   BANK0   BANK1
  6129 ;;      Params:         0       0       0
  6130 ;;      Locals:         1       0       0
  6131 ;;      Temps:          0       0       0
  6132 ;;      Totals:         1       0       0
  6133 ;;Total ram usage:        1 bytes
  6134 ;; Hardware stack levels used: 1
  6135 ;; Hardware stack levels required when called: 2
  6136 ;; This function calls:
  6137 ;;		Nothing
  6138 ;; This function is called by:
  6139 ;;		_motorController
  6140 ;; This function uses a non-reentrant model
  6141 ;;
  6142                           
  6143                           	psect	text19
  6144   0016E6                     __ptext19:
  6145                           	callstack 0
  6146   0016E6                     _getHall:
  6147                           	callstack 27
  6148   0016E6                     
  6149                           ;TAD_Hall.c: 18:     unsigned char aux = hallEvent;
  6150   0016E6  C034  F042         	movff	_hallEvent,getHall@aux
  6151                           
  6152                           ;TAD_Hall.c: 19:     hallEvent = 0;
  6153   0016EA  6A34               	clrf	_hallEvent^0,c
  6154   0016EC                     
  6155                           ;TAD_Hall.c: 20:     return aux;
  6156   0016EC  5042               	movf	getHall@aux^0,w,c
  6157   0016EE  0012               	return		;funcret
  6158   0016F0                     __end_of_getHall:
  6159                           	callstack 0
  6160                           
  6161 ;; *************** function _getButton *****************
  6162 ;; Defined at:
  6163 ;;		line 20 in file "TAD_Button.c"
  6164 ;; Parameters:    Size  Location     Type
  6165 ;;		None
  6166 ;; Auto vars:     Size  Location     Type
  6167 ;;  aux             1    0[COMRAM] unsigned char 
  6168 ;; Return value:  Size  Location     Type
  6169 ;;                  1    wreg      unsigned char 
  6170 ;; Registers used:
  6171 ;;		wreg, status,2
  6172 ;; Tracked objects:
  6173 ;;		On entry : 0/0
  6174 ;;		On exit  : 0/0
  6175 ;;		Unchanged: 0/0
  6176 ;; Data sizes:     COMRAM   BANK0   BANK1
  6177 ;;      Params:         0       0       0
  6178 ;;      Locals:         1       0       0
  6179 ;;      Temps:          0       0       0
  6180 ;;      Totals:         1       0       0
  6181 ;;Total ram usage:        1 bytes
  6182 ;; Hardware stack levels used: 1
  6183 ;; Hardware stack levels required when called: 2
  6184 ;; This function calls:
  6185 ;;		Nothing
  6186 ;; This function is called by:
  6187 ;;		_motorController
  6188 ;; This function uses a non-reentrant model
  6189 ;;
  6190                           
  6191                           	psect	text20
  6192   0016F0                     __ptext20:
  6193                           	callstack 0
  6194   0016F0                     _getButton:
  6195                           	callstack 27
  6196   0016F0                     
  6197                           ;TAD_Button.c: 21:     unsigned char aux = isPressed;
  6198   0016F0  C021  F042         	movff	_isPressed,getButton@aux
  6199                           
  6200                           ;TAD_Button.c: 22:     isPressed = 0;
  6201   0016F4  6A21               	clrf	_isPressed^0,c
  6202   0016F6                     
  6203                           ;TAD_Button.c: 23:     return aux;
  6204   0016F6  5042               	movf	getButton@aux^0,w,c
  6205   0016F8  0012               	return		;funcret
  6206   0016FA                     __end_of_getButton:
  6207                           	callstack 0
  6208                           
  6209 ;; *************** function _SIO_TxAvail *****************
  6210 ;; Defined at:
  6211 ;;		line 30 in file "TAD_SIO.c"
  6212 ;; Parameters:    Size  Location     Type
  6213 ;;		None
  6214 ;; Auto vars:     Size  Location     Type
  6215 ;;		None
  6216 ;; Return value:  Size  Location     Type
  6217 ;;                  1    wreg      unsigned char 
  6218 ;; Registers used:
  6219 ;;		wreg
  6220 ;; Tracked objects:
  6221 ;;		On entry : 0/0
  6222 ;;		On exit  : 0/0
  6223 ;;		Unchanged: 0/0
  6224 ;; Data sizes:     COMRAM   BANK0   BANK1
  6225 ;;      Params:         0       0       0
  6226 ;;      Locals:         0       0       0
  6227 ;;      Temps:          0       0       0
  6228 ;;      Totals:         0       0       0
  6229 ;;Total ram usage:        0 bytes
  6230 ;; Hardware stack levels used: 1
  6231 ;; Hardware stack levels required when called: 2
  6232 ;; This function calls:
  6233 ;;		Nothing
  6234 ;; This function is called by:
  6235 ;;		_motorController
  6236 ;; This function uses a non-reentrant model
  6237 ;;
  6238                           
  6239                           	psect	text21
  6240   0016BC                     __ptext21:
  6241                           	callstack 0
  6242   0016BC                     _SIO_TxAvail:
  6243                           	callstack 27
  6244   0016BC                     
  6245                           ;TAD_SIO.c: 31:     return TXSTAbits.TRMT;
  6246   0016BC  B2AC               	btfsc	172,1,c	;volatile
  6247   0016BE  EF63  F00B         	goto	u111
  6248   0016C2  EF66  F00B         	goto	u110
  6249   0016C6                     u111:
  6250   0016C6  0E01               	movlw	1
  6251   0016C8  EF67  F00B         	goto	u116
  6252   0016CC                     u110:
  6253   0016CC  0E00               	movlw	0
  6254   0016CE                     u116:
  6255   0016CE  0012               	return		;funcret
  6256   0016D0                     __end_of_SIO_TxAvail:
  6257                           	callstack 0
  6258                           
  6259 ;; *************** function _SIO_SendChar *****************
  6260 ;; Defined at:
  6261 ;;		line 38 in file "TAD_SIO.c"
  6262 ;; Parameters:    Size  Location     Type
  6263 ;;  c               1    wreg     unsigned char 
  6264 ;; Auto vars:     Size  Location     Type
  6265 ;;  c               1    0[COMRAM] unsigned char 
  6266 ;; Return value:  Size  Location     Type
  6267 ;;                  1    wreg      void 
  6268 ;; Registers used:
  6269 ;;		wreg
  6270 ;; Tracked objects:
  6271 ;;		On entry : 0/0
  6272 ;;		On exit  : 0/0
  6273 ;;		Unchanged: 0/0
  6274 ;; Data sizes:     COMRAM   BANK0   BANK1
  6275 ;;      Params:         0       0       0
  6276 ;;      Locals:         1       0       0
  6277 ;;      Temps:          0       0       0
  6278 ;;      Totals:         1       0       0
  6279 ;;Total ram usage:        1 bytes
  6280 ;; Hardware stack levels used: 1
  6281 ;; Hardware stack levels required when called: 2
  6282 ;; This function calls:
  6283 ;;		Nothing
  6284 ;; This function is called by:
  6285 ;;		_motorMatrix
  6286 ;;		_motorController
  6287 ;; This function uses a non-reentrant model
  6288 ;;
  6289                           
  6290                           	psect	text22
  6291   0016FA                     __ptext22:
  6292                           	callstack 0
  6293   0016FA                     _SIO_SendChar:
  6294                           	callstack 27
  6295                           
  6296                           ;incstack = 0
  6297                           ;SIO_SendChar@c stored from wreg
  6298   0016FA  6E42               	movwf	SIO_SendChar@c^0,c
  6299   0016FC                     
  6300                           ;TAD_SIO.c: 39:     TXREG = c;
  6301   0016FC  C042  FFAD         	movff	SIO_SendChar@c,4013	;volatile
  6302   001700                     
  6303                           ;TAD_SIO.c: 40:     TXSTAbits.TXEN = 1;
  6304   001700  8AAC               	bsf	172,5,c	;volatile
  6305   001702  0012               	return		;funcret
  6306   001704                     __end_of_SIO_SendChar:
  6307                           	callstack 0
  6308                           
  6309 ;; *************** function _SIO_GetChar *****************
  6310 ;; Defined at:
  6311 ;;		line 34 in file "TAD_SIO.c"
  6312 ;; Parameters:    Size  Location     Type
  6313 ;;		None
  6314 ;; Auto vars:     Size  Location     Type
  6315 ;;		None
  6316 ;; Return value:  Size  Location     Type
  6317 ;;                  1    wreg      unsigned char 
  6318 ;; Registers used:
  6319 ;;		wreg, status,2
  6320 ;; Tracked objects:
  6321 ;;		On entry : 0/0
  6322 ;;		On exit  : 0/0
  6323 ;;		Unchanged: 0/0
  6324 ;; Data sizes:     COMRAM   BANK0   BANK1
  6325 ;;      Params:         0       0       0
  6326 ;;      Locals:         0       0       0
  6327 ;;      Temps:          0       0       0
  6328 ;;      Totals:         0       0       0
  6329 ;;Total ram usage:        0 bytes
  6330 ;; Hardware stack levels used: 1
  6331 ;; Hardware stack levels required when called: 2
  6332 ;; This function calls:
  6333 ;;		Nothing
  6334 ;; This function is called by:
  6335 ;;		_motorController
  6336 ;; This function uses a non-reentrant model
  6337 ;;
  6338                           
  6339                           	psect	text23
  6340   001732                     __ptext23:
  6341                           	callstack 0
  6342   001732                     _SIO_GetChar:
  6343                           	callstack 27
  6344   001732                     
  6345                           ;TAD_SIO.c: 35:     return RCREG;
  6346   001732  50AE               	movf	174,w,c	;volatile
  6347   001734  0012               	return		;funcret
  6348   001736                     __end_of_SIO_GetChar:
  6349                           	callstack 0
  6350                           
  6351 ;; *************** function _SIO_CharAvail *****************
  6352 ;; Defined at:
  6353 ;;		line 26 in file "TAD_SIO.c"
  6354 ;; Parameters:    Size  Location     Type
  6355 ;;		None
  6356 ;; Auto vars:     Size  Location     Type
  6357 ;;		None
  6358 ;; Return value:  Size  Location     Type
  6359 ;;                  2    0[COMRAM] int 
  6360 ;; Registers used:
  6361 ;;		wreg, status,2
  6362 ;; Tracked objects:
  6363 ;;		On entry : 0/0
  6364 ;;		On exit  : 0/0
  6365 ;;		Unchanged: 0/0
  6366 ;; Data sizes:     COMRAM   BANK0   BANK1
  6367 ;;      Params:         2       0       0
  6368 ;;      Locals:         0       0       0
  6369 ;;      Temps:          1       0       0
  6370 ;;      Totals:         3       0       0
  6371 ;;Total ram usage:        3 bytes
  6372 ;; Hardware stack levels used: 1
  6373 ;; Hardware stack levels required when called: 2
  6374 ;; This function calls:
  6375 ;;		Nothing
  6376 ;; This function is called by:
  6377 ;;		_motorController
  6378 ;; This function uses a non-reentrant model
  6379 ;;
  6380                           
  6381                           	psect	text24
  6382   00162C                     __ptext24:
  6383                           	callstack 0
  6384   00162C                     _SIO_CharAvail:
  6385                           	callstack 27
  6386   00162C                     
  6387                           ;TAD_SIO.c: 27:     return PIR1bits.RCIF;
  6388   00162C  BA9E               	btfsc	158,5,c	;volatile
  6389   00162E  EF1B  F00B         	goto	u1411
  6390   001632  EF1F  F00B         	goto	u1410
  6391   001636                     u1411:
  6392   001636  6A44               	clrf	??_SIO_CharAvail^0,c
  6393   001638  2A44               	incf	??_SIO_CharAvail^0,f,c
  6394   00163A  EF20  F00B         	goto	u1418
  6395   00163E                     u1410:
  6396   00163E  6A44               	clrf	??_SIO_CharAvail^0,c
  6397   001640                     u1418:
  6398   001640  5044               	movf	??_SIO_CharAvail^0,w,c
  6399   001642  6E42               	movwf	?_SIO_CharAvail^0,c
  6400   001644  6A43               	clrf	(?_SIO_CharAvail+1)^0,c
  6401   001646  0012               	return		;funcret
  6402   001648                     __end_of_SIO_CharAvail:
  6403                           	callstack 0
  6404                           
  6405 ;; *************** function _motorButton *****************
  6406 ;; Defined at:
  6407 ;;		line 26 in file "TAD_Button.c"
  6408 ;; Parameters:    Size  Location     Type
  6409 ;;		None
  6410 ;; Auto vars:     Size  Location     Type
  6411 ;;		None
  6412 ;; Return value:  Size  Location     Type
  6413 ;;                  1    wreg      void 
  6414 ;; Registers used:
  6415 ;;		wreg, fsr2l, fsr2h, status,2, status,0, prodl, prodh, cstack
  6416 ;; Tracked objects:
  6417 ;;		On entry : 0/0
  6418 ;;		On exit  : 0/0
  6419 ;;		Unchanged: 0/0
  6420 ;; Data sizes:     COMRAM   BANK0   BANK1
  6421 ;;      Params:         0       0       0
  6422 ;;      Locals:         0       0       0
  6423 ;;      Temps:          0       0       0
  6424 ;;      Totals:         0       0       0
  6425 ;;Total ram usage:        0 bytes
  6426 ;; Hardware stack levels used: 1
  6427 ;; Hardware stack levels required when called: 3
  6428 ;; This function calls:
  6429 ;;		_TI_GetTics
  6430 ;;		_TI_ResetTics
  6431 ;; This function is called by:
  6432 ;;		_main
  6433 ;; This function uses a non-reentrant model
  6434 ;;
  6435                           
  6436                           	psect	text25
  6437   00115C                     __ptext25:
  6438                           	callstack 0
  6439   00115C                     _motorButton:
  6440                           	callstack 27
  6441   00115C                     
  6442                           ;TAD_Button.c: 27:     static unsigned char state = 0;;TAD_Button.c: 29:     switch (sta
      +                          te) {
  6443   00115C  EF01  F009         	goto	l2889
  6444   001160                     l414:
  6445                           
  6446                           ;TAD_Button.c: 31:             if (PORTBbits.RB5 == 1) {
  6447   001160  AA81               	btfss	129,5,c	;volatile
  6448   001162  EFB5  F008         	goto	u2281
  6449   001166  EFB7  F008         	goto	u2280
  6450   00116A                     u2281:
  6451   00116A  EFBA  F008         	goto	l415
  6452   00116E                     u2280:
  6453   00116E                     l2871:
  6454                           
  6455                           ;TAD_Button.c: 32:                 state = 0;
  6456   00116E  6A20               	clrf	motorButton@state^0,c
  6457                           
  6458                           ;TAD_Button.c: 33:             } else if (PORTBbits.RB5 == 0) {
  6459   001170  EF10  F009         	goto	l423
  6460   001174                     l415:
  6461   001174  BA81               	btfsc	129,5,c	;volatile
  6462   001176  EFBF  F008         	goto	u2291
  6463   00117A  EFC1  F008         	goto	u2290
  6464   00117E                     u2291:
  6465   00117E  EF10  F009         	goto	l423
  6466   001182                     u2290:
  6467   001182                     
  6468                           ;TAD_Button.c: 34:                 state = 1;
  6469   001182  0E01               	movlw	1
  6470   001184  6E20               	movwf	motorButton@state^0,c
  6471   001186                     
  6472                           ;TAD_Button.c: 35:                 TI_ResetTics(timerHandle);
  6473   001186  503B               	movf	_timerHandle@TAD_Button$F1132^0,w,c
  6474   001188  EC04  F00B         	call	_TI_ResetTics
  6475   00118C  EF10  F009         	goto	l423
  6476   001190                     l419:
  6477                           
  6478                           ;TAD_Button.c: 39:             if (PORTBbits.RB5 == 0 && TI_GetTics(timerHandle) >= 8) {
  6479   001190  BA81               	btfsc	129,5,c	;volatile
  6480   001192  EFCD  F008         	goto	u2301
  6481   001196  EFCF  F008         	goto	u2300
  6482   00119A                     u2301:
  6483   00119A  EF10  F009         	goto	l423
  6484   00119E                     u2300:
  6485   00119E  503B               	movf	_timerHandle@TAD_Button$F1132^0,w,c
  6486   0011A0  EC01  F00A         	call	_TI_GetTics
  6487   0011A4  5045               	movf	(?_TI_GetTics+3)^0,w,c
  6488   0011A6  1044               	iorwf	(?_TI_GetTics+2)^0,w,c
  6489   0011A8  1043               	iorwf	(?_TI_GetTics+1)^0,w,c
  6490   0011AA  E109               	bnz	u2310
  6491   0011AC  0E08               	movlw	8
  6492   0011AE  5C42               	subwf	?_TI_GetTics^0,w,c
  6493   0011B0  A0D8               	btfss	status,0,c
  6494   0011B2  EFDD  F008         	goto	u2311
  6495   0011B6  EFDF  F008         	goto	u2310
  6496   0011BA                     u2311:
  6497   0011BA  EF10  F009         	goto	l423
  6498   0011BE                     u2310:
  6499   0011BE                     
  6500                           ;TAD_Button.c: 40:                 isPressed = 1;
  6501   0011BE  0E01               	movlw	1
  6502   0011C0  6E21               	movwf	_isPressed^0,c
  6503                           
  6504                           ;TAD_Button.c: 41:                 state = 2;
  6505   0011C2  0E02               	movlw	2
  6506   0011C4  6E20               	movwf	motorButton@state^0,c
  6507   0011C6                     
  6508                           ;TAD_Button.c: 42:                 TI_ResetTics(timerHandle);
  6509   0011C6  503B               	movf	_timerHandle@TAD_Button$F1132^0,w,c
  6510   0011C8  EC04  F00B         	call	_TI_ResetTics
  6511   0011CC  EF10  F009         	goto	l423
  6512   0011D0                     l421:
  6513                           
  6514                           ;TAD_Button.c: 46:             if (PORTBbits.RB5 == 1 && TI_GetTics(timerHandle) >= 8) {
  6515   0011D0  AA81               	btfss	129,5,c	;volatile
  6516   0011D2  EFED  F008         	goto	u2321
  6517   0011D6  EFEF  F008         	goto	u2320
  6518   0011DA                     u2321:
  6519   0011DA  EF10  F009         	goto	l423
  6520   0011DE                     u2320:
  6521   0011DE  503B               	movf	_timerHandle@TAD_Button$F1132^0,w,c
  6522   0011E0  EC01  F00A         	call	_TI_GetTics
  6523   0011E4  5045               	movf	(?_TI_GetTics+3)^0,w,c
  6524   0011E6  1044               	iorwf	(?_TI_GetTics+2)^0,w,c
  6525   0011E8  1043               	iorwf	(?_TI_GetTics+1)^0,w,c
  6526   0011EA  E109               	bnz	u2330
  6527   0011EC  0E08               	movlw	8
  6528   0011EE  5C42               	subwf	?_TI_GetTics^0,w,c
  6529   0011F0  A0D8               	btfss	status,0,c
  6530   0011F2  EFFD  F008         	goto	u2331
  6531   0011F6  EFFF  F008         	goto	u2330
  6532   0011FA                     u2331:
  6533   0011FA  EF10  F009         	goto	l423
  6534   0011FE                     u2330:
  6535   0011FE  EFB7  F008         	goto	l2871
  6536   001202                     l2889:
  6537   001202  5020               	movf	motorButton@state^0,w,c
  6538                           
  6539                           ; Switch size 1, requested type "simple"
  6540                           ; Number of cases is 3, Range of values is 0 to 2
  6541                           ; switch strategies available:
  6542                           ; Name         Instructions Cycles
  6543                           ; simple_byte           10     6 (average)
  6544                           ;	Chosen strategy is simple_byte
  6545   001204  0A00               	xorlw	0	; case 0
  6546   001206  B4D8               	btfsc	status,2,c
  6547   001208  EFB0  F008         	goto	l414
  6548   00120C  0A01               	xorlw	1	; case 1
  6549   00120E  B4D8               	btfsc	status,2,c
  6550   001210  EFC8  F008         	goto	l419
  6551   001214  0A03               	xorlw	3	; case 2
  6552   001216  B4D8               	btfsc	status,2,c
  6553   001218  EFE8  F008         	goto	l421
  6554   00121C  EF10  F009         	goto	l423
  6555   001220                     l423:
  6556   001220  0012               	return		;funcret
  6557   001222                     __end_of_motorButton:
  6558                           	callstack 0
  6559                           
  6560 ;; *************** function _TI_ResetTics *****************
  6561 ;; Defined at:
  6562 ;;		line 52 in file "TAD_Timer.c"
  6563 ;; Parameters:    Size  Location     Type
  6564 ;;  TimerHandle     1    wreg     unsigned char 
  6565 ;; Auto vars:     Size  Location     Type
  6566 ;;  TimerHandle     1    0[COMRAM] unsigned char 
  6567 ;; Return value:  Size  Location     Type
  6568 ;;                  1    wreg      void 
  6569 ;; Registers used:
  6570 ;;		wreg, fsr2l, fsr2h, status,2, status,0, prodl, prodh
  6571 ;; Tracked objects:
  6572 ;;		On entry : 0/0
  6573 ;;		On exit  : 0/0
  6574 ;;		Unchanged: 0/0
  6575 ;; Data sizes:     COMRAM   BANK0   BANK1
  6576 ;;      Params:         0       0       0
  6577 ;;      Locals:         1       0       0
  6578 ;;      Temps:          0       0       0
  6579 ;;      Totals:         1       0       0
  6580 ;;Total ram usage:        1 bytes
  6581 ;; Hardware stack levels used: 1
  6582 ;; Hardware stack levels required when called: 2
  6583 ;; This function calls:
  6584 ;;		Nothing
  6585 ;; This function is called by:
  6586 ;;		_speaker_sound
  6587 ;;		_motorSpeaker
  6588 ;;		_motorLEDs
  6589 ;;		_motorMatrix
  6590 ;;		_motorButton
  6591 ;;		_motorController
  6592 ;; This function uses a non-reentrant model
  6593 ;;
  6594                           
  6595                           	psect	text26
  6596   001608                     __ptext26:
  6597                           	callstack 0
  6598   001608                     _TI_ResetTics:
  6599                           	callstack 26
  6600                           
  6601                           ;incstack = 0
  6602                           ;TI_ResetTics@TimerHandle stored from wreg
  6603   001608  6E42               	movwf	TI_ResetTics@TimerHandle^0,c
  6604   00160A                     
  6605                           ;TAD_Timer.c: 53:     (INTCONbits.GIE = 0);
  6606   00160A  9EF2               	bcf	242,7,c	;volatile
  6607   00160C                     
  6608                           ;TAD_Timer.c: 54:     Timers[TimerHandle].TicsInicials = Tics;
  6609   00160C  5042               	movf	TI_ResetTics@TimerHandle^0,w,c
  6610   00160E  0D05               	mullw	5
  6611   001610  50F3               	movf	243,w,c
  6612   001612  0F80               	addlw	low _Timers
  6613   001614  6ED9               	movwf	fsr2l,c
  6614   001616  6ADA               	clrf	fsr2h,c
  6615   001618  C011  FFDE         	movff	_Tics,postinc2	;volatile
  6616   00161C  C012  FFDE         	movff	_Tics+1,postinc2	;volatile
  6617   001620  C013  FFDE         	movff	_Tics+2,postinc2	;volatile
  6618   001624  C014  FFDE         	movff	_Tics+3,postinc2	;volatile
  6619   001628                     
  6620                           ;TAD_Timer.c: 55:     (INTCONbits.GIE = 1);
  6621   001628  8EF2               	bsf	242,7,c	;volatile
  6622   00162A  0012               	return		;funcret
  6623   00162C                     __end_of_TI_ResetTics:
  6624                           	callstack 0
  6625                           
  6626 ;; *************** function _TI_GetTics *****************
  6627 ;; Defined at:
  6628 ;;		line 58 in file "TAD_Timer.c"
  6629 ;; Parameters:    Size  Location     Type
  6630 ;;  TimerHandle     1    wreg     unsigned char 
  6631 ;; Auto vars:     Size  Location     Type
  6632 ;;  TimerHandle     1   12[COMRAM] unsigned char 
  6633 ;;  CopiaTicsAct    4    8[COMRAM] unsigned long 
  6634 ;; Return value:  Size  Location     Type
  6635 ;;                  4    0[COMRAM] unsigned long 
  6636 ;; Registers used:
  6637 ;;		wreg, fsr2l, fsr2h, status,2, status,0, prodl, prodh
  6638 ;; Tracked objects:
  6639 ;;		On entry : 0/0
  6640 ;;		On exit  : 0/0
  6641 ;;		Unchanged: 0/0
  6642 ;; Data sizes:     COMRAM   BANK0   BANK1
  6643 ;;      Params:         4       0       0
  6644 ;;      Locals:         5       0       0
  6645 ;;      Temps:          4       0       0
  6646 ;;      Totals:        13       0       0
  6647 ;;Total ram usage:       13 bytes
  6648 ;; Hardware stack levels used: 1
  6649 ;; Hardware stack levels required when called: 2
  6650 ;; This function calls:
  6651 ;;		Nothing
  6652 ;; This function is called by:
  6653 ;;		_processSpeakerSound
  6654 ;;		_motorSpeaker
  6655 ;;		_motorLEDs
  6656 ;;		_motorMatrix
  6657 ;;		_motorButton
  6658 ;;		_motorController
  6659 ;; This function uses a non-reentrant model
  6660 ;;
  6661                           
  6662                           	psect	text27
  6663   001402                     __ptext27:
  6664                           	callstack 0
  6665   001402                     _TI_GetTics:
  6666                           	callstack 26
  6667                           
  6668                           ;incstack = 0
  6669                           ;TI_GetTics@TimerHandle stored from wreg
  6670   001402  6E4E               	movwf	TI_GetTics@TimerHandle^0,c
  6671   001404                     
  6672                           ;TAD_Timer.c: 59:     (INTCONbits.GIE = 0);
  6673   001404  9EF2               	bcf	242,7,c	;volatile
  6674                           
  6675                           ;TAD_Timer.c: 60:     unsigned long CopiaTicsActual = Tics;
  6676   001406  C011  F04A         	movff	_Tics,TI_GetTics@CopiaTicsActual	;volatile
  6677   00140A  C012  F04B         	movff	_Tics+1,TI_GetTics@CopiaTicsActual+1	;volatile
  6678   00140E  C013  F04C         	movff	_Tics+2,TI_GetTics@CopiaTicsActual+2	;volatile
  6679   001412  C014  F04D         	movff	_Tics+3,TI_GetTics@CopiaTicsActual+3	;volatile
  6680                           
  6681                           ;TAD_Timer.c: 61:     (INTCONbits.GIE = 1);
  6682   001416  8EF2               	bsf	242,7,c	;volatile
  6683   001418                     
  6684                           ;TAD_Timer.c: 62:     return (CopiaTicsActual - (Timers[TimerHandle].TicsInicials));
  6685   001418  504E               	movf	TI_GetTics@TimerHandle^0,w,c
  6686   00141A  0D05               	mullw	5
  6687   00141C  50F3               	movf	243,w,c
  6688   00141E  0F80               	addlw	low _Timers
  6689   001420  6ED9               	movwf	fsr2l,c
  6690   001422  6ADA               	clrf	fsr2h,c
  6691   001424  CFDE F046          	movff	postinc2,??_TI_GetTics
  6692   001428  CFDE F047          	movff	postinc2,??_TI_GetTics+1
  6693   00142C  CFDE F048          	movff	postinc2,??_TI_GetTics+2
  6694   001430  CFDE F049          	movff	postinc2,??_TI_GetTics+3
  6695   001434  5046               	movf	??_TI_GetTics^0,w,c
  6696   001436  5C4A               	subwf	TI_GetTics@CopiaTicsActual^0,w,c
  6697   001438  6E42               	movwf	?_TI_GetTics^0,c
  6698   00143A  5047               	movf	(??_TI_GetTics+1)^0,w,c
  6699   00143C  584B               	subwfb	(TI_GetTics@CopiaTicsActual+1)^0,w,c
  6700   00143E  6E43               	movwf	(?_TI_GetTics+1)^0,c
  6701   001440  5048               	movf	(??_TI_GetTics+2)^0,w,c
  6702   001442  584C               	subwfb	(TI_GetTics@CopiaTicsActual+2)^0,w,c
  6703   001444  6E44               	movwf	(?_TI_GetTics+2)^0,c
  6704   001446  5049               	movf	(??_TI_GetTics+3)^0,w,c
  6705   001448  584D               	subwfb	(TI_GetTics@CopiaTicsActual+3)^0,w,c
  6706   00144A  6E45               	movwf	(?_TI_GetTics+3)^0,c
  6707   00144C  0012               	return		;funcret
  6708   00144E                     __end_of_TI_GetTics:
  6709                           	callstack 0
  6710                           
  6711 ;; *************** function _TI_Init *****************
  6712 ;; Defined at:
  6713 ;;		line 30 in file "TAD_Timer.c"
  6714 ;; Parameters:    Size  Location     Type
  6715 ;;		None
  6716 ;; Auto vars:     Size  Location     Type
  6717 ;;  counter         1    0[COMRAM] unsigned char 
  6718 ;; Return value:  Size  Location     Type
  6719 ;;                  1    wreg      void 
  6720 ;; Registers used:
  6721 ;;		wreg, fsr2l, fsr2h, status,2, status,0, prodl, prodh
  6722 ;; Tracked objects:
  6723 ;;		On entry : 0/0
  6724 ;;		On exit  : 0/0
  6725 ;;		Unchanged: 0/0
  6726 ;; Data sizes:     COMRAM   BANK0   BANK1
  6727 ;;      Params:         0       0       0
  6728 ;;      Locals:         1       0       0
  6729 ;;      Temps:          0       0       0
  6730 ;;      Totals:         1       0       0
  6731 ;;Total ram usage:        1 bytes
  6732 ;; Hardware stack levels used: 1
  6733 ;; Hardware stack levels required when called: 2
  6734 ;; This function calls:
  6735 ;;		Nothing
  6736 ;; This function is called by:
  6737 ;;		_main
  6738 ;; This function uses a non-reentrant model
  6739 ;;
  6740                           
  6741                           	psect	text28
  6742   001560                     __ptext28:
  6743                           	callstack 0
  6744   001560                     _TI_Init:
  6745                           	callstack 28
  6746   001560                     
  6747                           ;TAD_Timer.c: 31:     for (unsigned char counter = 0; counter < 10; counter++) {
  6748   001560  6A42               	clrf	TI_Init@counter^0,c
  6749   001562                     l2275:
  6750                           
  6751                           ;TAD_Timer.c: 32:         Timers[counter].Busy = 0;
  6752   001562  5042               	movf	TI_Init@counter^0,w,c
  6753   001564  0D05               	mullw	5
  6754   001566  50F3               	movf	243,w,c
  6755   001568  0F84               	addlw	low (_Timers+4)
  6756   00156A  6ED9               	movwf	fsr2l,c
  6757   00156C  6ADA               	clrf	fsr2h,c
  6758   00156E  6ADF               	clrf	indf2,c
  6759   001570                     
  6760                           ;TAD_Timer.c: 33:     }
  6761   001570  2A42               	incf	TI_Init@counter^0,f,c
  6762   001572  0E09               	movlw	9
  6763   001574  6442               	cpfsgt	TI_Init@counter^0,c
  6764   001576  EFBF  F00A         	goto	u1461
  6765   00157A  EFC1  F00A         	goto	u1460
  6766   00157E                     u1461:
  6767   00157E  EFB1  F00A         	goto	l2275
  6768   001582                     u1460:
  6769   001582                     
  6770                           ;TAD_Timer.c: 34:     T0CON = 0x82;
  6771   001582  0E82               	movlw	130
  6772   001584  6ED5               	movwf	213,c	;volatile
  6773                           
  6774                           ;TAD_Timer.c: 35:     TMR0 = 64911;
  6775   001586  0EFD               	movlw	253
  6776   001588  6ED7               	movwf	215,c	;volatile
  6777   00158A  0E8F               	movlw	143
  6778   00158C  6ED6               	movwf	214,c	;volatile
  6779   00158E                     
  6780                           ;TAD_Timer.c: 36:     INTCONbits.TMR0IF = 0;
  6781   00158E  94F2               	bcf	242,2,c	;volatile
  6782   001590                     
  6783                           ;TAD_Timer.c: 37:     INTCONbits.TMR0IE = 1;
  6784   001590  8AF2               	bsf	242,5,c	;volatile
  6785   001592                     
  6786                           ;TAD_Timer.c: 38:     INTCONbits.PEIE = 1;
  6787   001592  8CF2               	bsf	242,6,c	;volatile
  6788   001594                     
  6789                           ;TAD_Timer.c: 39:     INTCONbits.GIE = 1;
  6790   001594  8EF2               	bsf	242,7,c	;volatile
  6791   001596  0012               	return		;funcret
  6792   001598                     __end_of_TI_Init:
  6793                           	callstack 0
  6794                           
  6795 ;; *************** function _Speaker_Init *****************
  6796 ;; Defined at:
  6797 ;;		line 22 in file "TAD_Speaker.c"
  6798 ;; Parameters:    Size  Location     Type
  6799 ;;		None
  6800 ;; Auto vars:     Size  Location     Type
  6801 ;;		None
  6802 ;; Return value:  Size  Location     Type
  6803 ;;                  1    wreg      void 
  6804 ;; Registers used:
  6805 ;;		wreg, fsr2l, fsr2h, status,2, status,0, prodl, prodh, cstack
  6806 ;; Tracked objects:
  6807 ;;		On entry : 0/0
  6808 ;;		On exit  : 0/0
  6809 ;;		Unchanged: 0/0
  6810 ;; Data sizes:     COMRAM   BANK0   BANK1
  6811 ;;      Params:         0       0       0
  6812 ;;      Locals:         0       0       0
  6813 ;;      Temps:          0       0       0
  6814 ;;      Totals:         0       0       0
  6815 ;;Total ram usage:        0 bytes
  6816 ;; Hardware stack levels used: 1
  6817 ;; Hardware stack levels required when called: 3
  6818 ;; This function calls:
  6819 ;;		_TI_NewTimer
  6820 ;; This function is called by:
  6821 ;;		_main
  6822 ;; This function uses a non-reentrant model
  6823 ;;
  6824                           
  6825                           	psect	text29
  6826   001692                     __ptext29:
  6827                           	callstack 0
  6828   001692                     _Speaker_Init:
  6829                           	callstack 27
  6830   001692                     
  6831                           ;TAD_Speaker.c: 23:     TI_NewTimer(&timerHandle);
  6832   001692  0E41               	movlw	low _timerHandle
  6833   001694  6E42               	movwf	TI_NewTimer@TimerHandle^0,c
  6834   001696  ECD6  F009         	call	_TI_NewTimer	;wreg free
  6835                           
  6836                           ;TAD_Speaker.c: 24:     TI_NewTimer(&soundTimerHandle);
  6837   00169A  0E40               	movlw	low _soundTimerHandle
  6838   00169C  6E42               	movwf	TI_NewTimer@TimerHandle^0,c
  6839   00169E  ECD6  F009         	call	_TI_NewTimer	;wreg free
  6840   0016A2                     
  6841                           ;TAD_Speaker.c: 25:     TRISCbits.TRISC3 = 0;
  6842   0016A2  9694               	bcf	148,3,c	;volatile
  6843   0016A4                     
  6844                           ;TAD_Speaker.c: 26:     LATCbits.LATC3 = 0;
  6845   0016A4  968B               	bcf	139,3,c	;volatile
  6846   0016A6  0012               	return		;funcret
  6847   0016A8                     __end_of_Speaker_Init:
  6848                           	callstack 0
  6849                           
  6850 ;; *************** function _SIO_Init *****************
  6851 ;; Defined at:
  6852 ;;		line 12 in file "TAD_SIO.c"
  6853 ;; Parameters:    Size  Location     Type
  6854 ;;		None
  6855 ;; Auto vars:     Size  Location     Type
  6856 ;;		None
  6857 ;; Return value:  Size  Location     Type
  6858 ;;                  1    wreg      void 
  6859 ;; Registers used:
  6860 ;;		wreg, status,2
  6861 ;; Tracked objects:
  6862 ;;		On entry : 0/0
  6863 ;;		On exit  : 0/0
  6864 ;;		Unchanged: 0/0
  6865 ;; Data sizes:     COMRAM   BANK0   BANK1
  6866 ;;      Params:         0       0       0
  6867 ;;      Locals:         0       0       0
  6868 ;;      Temps:          0       0       0
  6869 ;;      Totals:         0       0       0
  6870 ;;Total ram usage:        0 bytes
  6871 ;; Hardware stack levels used: 1
  6872 ;; Hardware stack levels required when called: 2
  6873 ;; This function calls:
  6874 ;;		Nothing
  6875 ;; This function is called by:
  6876 ;;		_main
  6877 ;; This function uses a non-reentrant model
  6878 ;;
  6879                           
  6880                           	psect	text30
  6881   001648                     __ptext30:
  6882                           	callstack 0
  6883   001648                     _SIO_Init:
  6884                           	callstack 28
  6885   001648                     
  6886                           ;TAD_SIO.c: 13:     TRISCbits.TRISC6 = 0;
  6887   001648  9C94               	bcf	148,6,c	;volatile
  6888                           
  6889                           ;TAD_SIO.c: 14:     TRISCbits.TRISC7 = 1;
  6890   00164A  8E94               	bsf	148,7,c	;volatile
  6891                           
  6892                           ;TAD_SIO.c: 15:     TXSTAbits.SYNC = 0;
  6893   00164C  98AC               	bcf	172,4,c	;volatile
  6894                           
  6895                           ;TAD_SIO.c: 16:     TXSTAbits.BRGH = 1;
  6896   00164E  84AC               	bsf	172,2,c	;volatile
  6897                           
  6898                           ;TAD_SIO.c: 17:     TXSTAbits.TXEN = 1;
  6899   001650  8AAC               	bsf	172,5,c	;volatile
  6900                           
  6901                           ;TAD_SIO.c: 18:     RCSTAbits.SPEN = 1;
  6902   001652  8EAB               	bsf	171,7,c	;volatile
  6903                           
  6904                           ;TAD_SIO.c: 19:     RCSTAbits.CREN = 1;
  6905   001654  88AB               	bsf	171,4,c	;volatile
  6906                           
  6907                           ;TAD_SIO.c: 20:     BAUDCONbits.BRG16 = 1;
  6908   001656  86B8               	bsf	184,3,c	;volatile
  6909   001658                     
  6910                           ;TAD_SIO.c: 22:     SPBRGH = 0x01;
  6911   001658  0E01               	movlw	1
  6912   00165A  6EB0               	movwf	176,c	;volatile
  6913                           
  6914                           ;TAD_SIO.c: 23:     SPBRG = 4;
  6915   00165C  0E04               	movlw	4
  6916   00165E  6EAF               	movwf	175,c	;volatile
  6917   001660  0012               	return		;funcret
  6918   001662                     __end_of_SIO_Init:
  6919                           	callstack 0
  6920                           
  6921 ;; *************** function _Matrix_Init *****************
  6922 ;; Defined at:
  6923 ;;		line 40 in file "TAD_Matrix.c"
  6924 ;; Parameters:    Size  Location     Type
  6925 ;;		None
  6926 ;; Auto vars:     Size  Location     Type
  6927 ;;		None
  6928 ;; Return value:  Size  Location     Type
  6929 ;;                  1    wreg      void 
  6930 ;; Registers used:
  6931 ;;		wreg, fsr2l, fsr2h, status,2, status,0, prodl, prodh, cstack
  6932 ;; Tracked objects:
  6933 ;;		On entry : 0/0
  6934 ;;		On exit  : 0/0
  6935 ;;		Unchanged: 0/0
  6936 ;; Data sizes:     COMRAM   BANK0   BANK1
  6937 ;;      Params:         0       0       0
  6938 ;;      Locals:         0       0       0
  6939 ;;      Temps:          0       0       0
  6940 ;;      Totals:         0       0       0
  6941 ;;Total ram usage:        0 bytes
  6942 ;; Hardware stack levels used: 1
  6943 ;; Hardware stack levels required when called: 3
  6944 ;; This function calls:
  6945 ;;		_TI_NewTimer
  6946 ;; This function is called by:
  6947 ;;		_main
  6948 ;; This function uses a non-reentrant model
  6949 ;;
  6950                           
  6951                           	psect	text31
  6952   0015BE                     __ptext31:
  6953                           	callstack 0
  6954   0015BE                     _Matrix_Init:
  6955                           	callstack 27
  6956   0015BE                     
  6957                           ;TAD_Matrix.c: 42:     ADCON1 = 0x0F;
  6958   0015BE  0E0F               	movlw	15
  6959   0015C0  6EC1               	movwf	193,c	;volatile
  6960   0015C2                     
  6961                           ;TAD_Matrix.c: 44:     TI_NewTimer(&timerHandle);
  6962   0015C2  0E3D               	movlw	low _timerHandle@TAD_Matrix$F1022
  6963   0015C4  6E42               	movwf	TI_NewTimer@TimerHandle^0,c
  6964   0015C6  ECD6  F009         	call	_TI_NewTimer	;wreg free
  6965   0015CA                     
  6966                           ;TAD_Matrix.c: 45:     TI_NewTimer(&timer1s);
  6967   0015CA  0E3C               	movlw	low _timer1s
  6968   0015CC  6E42               	movwf	TI_NewTimer@TimerHandle^0,c
  6969   0015CE  ECD6  F009         	call	_TI_NewTimer	;wreg free
  6970   0015D2                     
  6971                           ;TAD_Matrix.c: 46:     TRISBbits.TRISB0 = TRISBbits.TRISB1 = TRISBbits.TRISB2 = TRISBbit
      +                          s.TRISB3 = 1;
  6972   0015D2  8693               	bsf	147,3,c	;volatile
  6973   0015D4  8493               	bsf	147,2,c	;volatile
  6974   0015D6  8293               	bsf	147,1,c	;volatile
  6975   0015D8  8093               	bsf	147,0,c	;volatile
  6976   0015DA                     
  6977                           ;TAD_Matrix.c: 47:     TRISDbits.TRISD5 = TRISDbits.TRISD6 = TRISDbits.TRISD7 = 0;
  6978   0015DA  9E95               	bcf	149,7,c	;volatile
  6979   0015DC  9C95               	bcf	149,6,c	;volatile
  6980   0015DE  9A95               	bcf	149,5,c	;volatile
  6981   0015E0                     
  6982                           ;TAD_Matrix.c: 48:     INTCON2bits.NOT_RBPU = 0;
  6983   0015E0  9EF1               	bcf	241,7,c	;volatile
  6984   0015E2  0012               	return		;funcret
  6985   0015E4                     __end_of_Matrix_Init:
  6986                           	callstack 0
  6987                           
  6988 ;; *************** function _LED_Init *****************
  6989 ;; Defined at:
  6990 ;;		line 17 in file "TAD_LEDS.c"
  6991 ;; Parameters:    Size  Location     Type
  6992 ;;		None
  6993 ;; Auto vars:     Size  Location     Type
  6994 ;;		None
  6995 ;; Return value:  Size  Location     Type
  6996 ;;                  1    wreg      void 
  6997 ;; Registers used:
  6998 ;;		wreg, fsr2l, fsr2h, status,2, status,0, prodl, prodh, cstack
  6999 ;; Tracked objects:
  7000 ;;		On entry : 0/0
  7001 ;;		On exit  : 0/0
  7002 ;;		Unchanged: 0/0
  7003 ;; Data sizes:     COMRAM   BANK0   BANK1
  7004 ;;      Params:         0       0       0
  7005 ;;      Locals:         0       0       0
  7006 ;;      Temps:          0       0       0
  7007 ;;      Totals:         0       0       0
  7008 ;;Total ram usage:        0 bytes
  7009 ;; Hardware stack levels used: 1
  7010 ;; Hardware stack levels required when called: 3
  7011 ;; This function calls:
  7012 ;;		_TI_NewTimer
  7013 ;; This function is called by:
  7014 ;;		_main
  7015 ;; This function uses a non-reentrant model
  7016 ;;
  7017                           
  7018                           	psect	text32
  7019   001662                     __ptext32:
  7020                           	callstack 0
  7021   001662                     _LED_Init:
  7022                           	callstack 27
  7023   001662                     
  7024                           ;TAD_LEDS.c: 18:     TI_NewTimer(&timerPWM);
  7025   001662  0E3F               	movlw	low _timerPWM
  7026   001664  6E42               	movwf	TI_NewTimer@TimerHandle^0,c
  7027   001666  ECD6  F009         	call	_TI_NewTimer	;wreg free
  7028                           
  7029                           ;TAD_LEDS.c: 19:     TI_NewTimer(&timerRamp);
  7030   00166A  0E3E               	movlw	low _timerRamp
  7031   00166C  6E42               	movwf	TI_NewTimer@TimerHandle^0,c
  7032   00166E  ECD6  F009         	call	_TI_NewTimer	;wreg free
  7033   001672                     
  7034                           ;TAD_LEDS.c: 21:     TRISDbits.TRISD0 = 0;
  7035   001672  9095               	bcf	149,0,c	;volatile
  7036   001674                     
  7037                           ;TAD_LEDS.c: 22:     TRISDbits.TRISD1 = 0;
  7038   001674  9295               	bcf	149,1,c	;volatile
  7039   001676                     
  7040                           ;TAD_LEDS.c: 23:     TRISCbits.TRISC2 = 0;
  7041   001676  9494               	bcf	148,2,c	;volatile
  7042   001678  0012               	return		;funcret
  7043   00167A                     __end_of_LED_Init:
  7044                           	callstack 0
  7045                           
  7046 ;; *************** function _Hall_Init *****************
  7047 ;; Defined at:
  7048 ;;		line 13 in file "TAD_Hall.c"
  7049 ;; Parameters:    Size  Location     Type
  7050 ;;		None
  7051 ;; Auto vars:     Size  Location     Type
  7052 ;;		None
  7053 ;; Return value:  Size  Location     Type
  7054 ;;                  1    wreg      void 
  7055 ;; Registers used:
  7056 ;;		None
  7057 ;; Tracked objects:
  7058 ;;		On entry : 0/0
  7059 ;;		On exit  : 0/0
  7060 ;;		Unchanged: 0/0
  7061 ;; Data sizes:     COMRAM   BANK0   BANK1
  7062 ;;      Params:         0       0       0
  7063 ;;      Locals:         0       0       0
  7064 ;;      Temps:          0       0       0
  7065 ;;      Totals:         0       0       0
  7066 ;;Total ram usage:        0 bytes
  7067 ;; Hardware stack levels used: 1
  7068 ;; Hardware stack levels required when called: 2
  7069 ;; This function calls:
  7070 ;;		Nothing
  7071 ;; This function is called by:
  7072 ;;		_main
  7073 ;; This function uses a non-reentrant model
  7074 ;;
  7075                           
  7076                           	psect	text33
  7077   001736                     __ptext33:
  7078                           	callstack 0
  7079   001736                     _Hall_Init:
  7080                           	callstack 28
  7081   001736                     
  7082                           ;TAD_Hall.c: 14:     TRISBbits.TRISB4 = 1;
  7083   001736  8893               	bsf	147,4,c	;volatile
  7084   001738  0012               	return		;funcret
  7085   00173A                     __end_of_Hall_Init:
  7086                           	callstack 0
  7087                           
  7088 ;; *************** function _Controller_Init *****************
  7089 ;; Defined at:
  7090 ;;		line 33 in file "TAD_Controller.c"
  7091 ;; Parameters:    Size  Location     Type
  7092 ;;		None
  7093 ;; Auto vars:     Size  Location     Type
  7094 ;;		None
  7095 ;; Return value:  Size  Location     Type
  7096 ;;                  1    wreg      void 
  7097 ;; Registers used:
  7098 ;;		wreg, fsr2l, fsr2h, status,2, status,0, prodl, prodh, cstack
  7099 ;; Tracked objects:
  7100 ;;		On entry : 0/0
  7101 ;;		On exit  : 0/0
  7102 ;;		Unchanged: 0/0
  7103 ;; Data sizes:     COMRAM   BANK0   BANK1
  7104 ;;      Params:         0       0       0
  7105 ;;      Locals:         0       0       0
  7106 ;;      Temps:          0       0       0
  7107 ;;      Totals:         0       0       0
  7108 ;;Total ram usage:        0 bytes
  7109 ;; Hardware stack levels used: 1
  7110 ;; Hardware stack levels required when called: 3
  7111 ;; This function calls:
  7112 ;;		_TI_NewTimer
  7113 ;; This function is called by:
  7114 ;;		_main
  7115 ;; This function uses a non-reentrant model
  7116 ;;
  7117                           
  7118                           	psect	text34
  7119   001704                     __ptext34:
  7120                           	callstack 0
  7121   001704                     _Controller_Init:
  7122                           	callstack 27
  7123   001704                     
  7124                           ;TAD_Controller.c: 34:     TI_NewTimer(&timerHandle);
  7125   001704  0E3A               	movlw	low _timerHandle@TAD_Controller$F1167
  7126   001706  6E42               	movwf	TI_NewTimer@TimerHandle^0,c
  7127   001708  ECD6  F009         	call	_TI_NewTimer	;wreg free
  7128   00170C  0012               	return		;funcret
  7129   00170E                     __end_of_Controller_Init:
  7130                           	callstack 0
  7131                           
  7132 ;; *************** function _Button_Init *****************
  7133 ;; Defined at:
  7134 ;;		line 15 in file "TAD_Button.c"
  7135 ;; Parameters:    Size  Location     Type
  7136 ;;		None
  7137 ;; Auto vars:     Size  Location     Type
  7138 ;;		None
  7139 ;; Return value:  Size  Location     Type
  7140 ;;                  1    wreg      void 
  7141 ;; Registers used:
  7142 ;;		wreg, fsr2l, fsr2h, status,2, status,0, prodl, prodh, cstack
  7143 ;; Tracked objects:
  7144 ;;		On entry : 0/0
  7145 ;;		On exit  : 0/0
  7146 ;;		Unchanged: 0/0
  7147 ;; Data sizes:     COMRAM   BANK0   BANK1
  7148 ;;      Params:         0       0       0
  7149 ;;      Locals:         0       0       0
  7150 ;;      Temps:          0       0       0
  7151 ;;      Totals:         0       0       0
  7152 ;;Total ram usage:        0 bytes
  7153 ;; Hardware stack levels used: 1
  7154 ;; Hardware stack levels required when called: 3
  7155 ;; This function calls:
  7156 ;;		_TI_NewTimer
  7157 ;; This function is called by:
  7158 ;;		_main
  7159 ;; This function uses a non-reentrant model
  7160 ;;
  7161                           
  7162                           	psect	text35
  7163   0016D0                     __ptext35:
  7164                           	callstack 0
  7165   0016D0                     _Button_Init:
  7166                           	callstack 27
  7167   0016D0                     
  7168                           ;TAD_Button.c: 16:     TRISBbits.TRISB5 = 1;
  7169   0016D0  8A93               	bsf	147,5,c	;volatile
  7170   0016D2                     
  7171                           ;TAD_Button.c: 17:     TI_NewTimer(&timerHandle);
  7172   0016D2  0E3B               	movlw	low _timerHandle@TAD_Button$F1132
  7173   0016D4  6E42               	movwf	TI_NewTimer@TimerHandle^0,c
  7174   0016D6  ECD6  F009         	call	_TI_NewTimer	;wreg free
  7175   0016DA  0012               	return		;funcret
  7176   0016DC                     __end_of_Button_Init:
  7177                           	callstack 0
  7178                           
  7179 ;; *************** function _TI_NewTimer *****************
  7180 ;; Defined at:
  7181 ;;		line 42 in file "TAD_Timer.c"
  7182 ;; Parameters:    Size  Location     Type
  7183 ;;  TimerHandle     1    0[COMRAM] PTR unsigned char 
  7184 ;;		 -> timerHandle@TAD_Controller$F1167(1), timerHandle@TAD_Button$F1132(1), timer1s(1), timerHandle@TAD_Matrix$F1022(1
      +), 
  7185 ;;		 -> timerRamp(1), timerPWM(1), soundTimerHandle(1), timerHandle(1), 
  7186 ;; Auto vars:     Size  Location     Type
  7187 ;;  Comptador       1    2[COMRAM] unsigned char 
  7188 ;; Return value:  Size  Location     Type
  7189 ;;                  1    wreg      unsigned char 
  7190 ;; Registers used:
  7191 ;;		wreg, fsr2l, fsr2h, status,2, status,0, prodl, prodh
  7192 ;; Tracked objects:
  7193 ;;		On entry : 0/0
  7194 ;;		On exit  : 0/0
  7195 ;;		Unchanged: 0/0
  7196 ;; Data sizes:     COMRAM   BANK0   BANK1
  7197 ;;      Params:         1       0       0
  7198 ;;      Locals:         1       0       0
  7199 ;;      Temps:          1       0       0
  7200 ;;      Totals:         3       0       0
  7201 ;;Total ram usage:        3 bytes
  7202 ;; Hardware stack levels used: 1
  7203 ;; Hardware stack levels required when called: 2
  7204 ;; This function calls:
  7205 ;;		Nothing
  7206 ;; This function is called by:
  7207 ;;		_Speaker_Init
  7208 ;;		_LED_Init
  7209 ;;		_Matrix_Init
  7210 ;;		_Button_Init
  7211 ;;		_Controller_Init
  7212 ;; This function uses a non-reentrant model
  7213 ;;
  7214                           
  7215                           	psect	text36
  7216   0013AC                     __ptext36:
  7217                           	callstack 0
  7218   0013AC                     _TI_NewTimer:
  7219                           	callstack 27
  7220   0013AC                     
  7221                           ;TAD_Timer.c: 43:     unsigned char Comptador = 0;
  7222   0013AC  6A44               	clrf	TI_NewTimer@Comptador^0,c
  7223                           
  7224                           ;TAD_Timer.c: 44:     while(Timers[Comptador].Busy == 1) {
  7225   0013AE  EFE5  F009         	goto	l2201
  7226   0013B2                     l2197:
  7227                           
  7228                           ;TAD_Timer.c: 45:         if(++Comptador == 10) return (0);
  7229   0013B2  2A44               	incf	TI_NewTimer@Comptador^0,f,c
  7230   0013B4  0E0A               	movlw	10
  7231   0013B6  1844               	xorwf	TI_NewTimer@Comptador^0,w,c
  7232   0013B8  A4D8               	btfss	status,2,c
  7233   0013BA  EFE1  F009         	goto	u1321
  7234   0013BE  EFE3  F009         	goto	u1320
  7235   0013C2                     u1321:
  7236   0013C2  EFE5  F009         	goto	l2201
  7237   0013C6                     u1320:
  7238   0013C6  EF00  F00A         	goto	l72
  7239   0013CA                     l2201:
  7240                           
  7241                           ;TAD_Timer.c: 44:     while(Timers[Comptador].Busy == 1) {
  7242   0013CA  5044               	movf	TI_NewTimer@Comptador^0,w,c
  7243   0013CC  0D05               	mullw	5
  7244   0013CE  50F3               	movf	243,w,c
  7245   0013D0  0F84               	addlw	low (_Timers+4)
  7246   0013D2  6ED9               	movwf	fsr2l,c
  7247   0013D4  6ADA               	clrf	fsr2h,c
  7248   0013D6  04DE               	decf	postinc2,w,c
  7249   0013D8  B4D8               	btfsc	status,2,c
  7250   0013DA  EFF1  F009         	goto	u1331
  7251   0013DE  EFF3  F009         	goto	u1330
  7252   0013E2                     u1331:
  7253   0013E2  EFD9  F009         	goto	l2197
  7254   0013E6                     u1330:
  7255   0013E6                     
  7256                           ;TAD_Timer.c: 47:     Timers[Comptador].Busy = 1;
  7257   0013E6  5044               	movf	TI_NewTimer@Comptador^0,w,c
  7258   0013E8  0D05               	mullw	5
  7259   0013EA  50F3               	movf	243,w,c
  7260   0013EC  0F84               	addlw	low (_Timers+4)
  7261   0013EE  6ED9               	movwf	fsr2l,c
  7262   0013F0  6ADA               	clrf	fsr2h,c
  7263   0013F2  0E01               	movlw	1
  7264   0013F4  6EDF               	movwf	indf2,c
  7265   0013F6                     
  7266                           ;TAD_Timer.c: 48:     *TimerHandle = Comptador;
  7267   0013F6  5042               	movf	TI_NewTimer@TimerHandle^0,w,c
  7268   0013F8  6ED9               	movwf	fsr2l,c
  7269   0013FA  6ADA               	clrf	fsr2h,c
  7270   0013FC  C044  FFDF         	movff	TI_NewTimer@Comptador,indf2
  7271   001400                     l72:
  7272   001400  0012               	return		;funcret
  7273   001402                     __end_of_TI_NewTimer:
  7274                           	callstack 0
  7275                           
  7276 ;; *************** function _RSI_HIGH *****************
  7277 ;; Defined at:
  7278 ;;		line 28 in file "main.c"
  7279 ;; Parameters:    Size  Location     Type
  7280 ;;		None
  7281 ;; Auto vars:     Size  Location     Type
  7282 ;;		None
  7283 ;; Return value:  Size  Location     Type
  7284 ;;                  1    wreg      void 
  7285 ;; Registers used:
  7286 ;;		wreg, status,2, status,0, cstack
  7287 ;; Tracked objects:
  7288 ;;		On entry : 0/0
  7289 ;;		On exit  : 0/0
  7290 ;;		Unchanged: 0/0
  7291 ;; Data sizes:     COMRAM   BANK0   BANK1
  7292 ;;      Params:         0       0       0
  7293 ;;      Locals:         0       0       0
  7294 ;;      Temps:          0       0       0
  7295 ;;      Totals:         0       0       0
  7296 ;;Total ram usage:        0 bytes
  7297 ;; Hardware stack levels used: 1
  7298 ;; Hardware stack levels required when called: 1
  7299 ;; This function calls:
  7300 ;;		_RSI_Timer0
  7301 ;; This function is called by:
  7302 ;;		Interrupt level 2
  7303 ;; This function uses a non-reentrant model
  7304 ;;
  7305                           
  7306                           	psect	intcode
  7307   000008                     __pintcode:
  7308                           	callstack 0
  7309   000008                     _RSI_HIGH:
  7310                           	callstack 26
  7311                           
  7312                           ;incstack = 0
  7313   000008  826B               	bsf	int$flags,1,c	;set compiler interrupt flag (level 2)
  7314   00000A  A4F2               	btfss	242,2,c	;volatile
  7315   00000C  EF0A  F000         	goto	i2u131_41
  7316   000010  EF0C  F000         	goto	i2u131_40
  7317   000014                     i2u131_41:
  7318   000014  EF0E  F000         	goto	i2l38
  7319   000018                     i2u131_40:
  7320   000018  EC3D  F00B         	call	_RSI_Timer0	;wreg free
  7321   00001C                     i2l38:
  7322   00001C  926B               	bcf	int$flags,1,c	;clear compiler interrupt flag (level 2)
  7323   00001E  0011               	retfie		f
  7324   000020                     __end_of_RSI_HIGH:
  7325                           	callstack 0
  7326                           
  7327 ;; *************** function _RSI_Timer0 *****************
  7328 ;; Defined at:
  7329 ;;		line 24 in file "TAD_Timer.c"
  7330 ;; Parameters:    Size  Location     Type
  7331 ;;		None
  7332 ;; Auto vars:     Size  Location     Type
  7333 ;;		None
  7334 ;; Return value:  Size  Location     Type
  7335 ;;                  1    wreg      void 
  7336 ;; Registers used:
  7337 ;;		wreg, status,2, status,0
  7338 ;; Tracked objects:
  7339 ;;		On entry : 0/0
  7340 ;;		On exit  : 0/0
  7341 ;;		Unchanged: 0/0
  7342 ;; Data sizes:     COMRAM   BANK0   BANK1
  7343 ;;      Params:         0       0       0
  7344 ;;      Locals:         0       0       0
  7345 ;;      Temps:          0       0       0
  7346 ;;      Totals:         0       0       0
  7347 ;;Total ram usage:        0 bytes
  7348 ;; Hardware stack levels used: 1
  7349 ;; This function calls:
  7350 ;;		Nothing
  7351 ;; This function is called by:
  7352 ;;		_RSI_HIGH
  7353 ;; This function uses a non-reentrant model
  7354 ;;
  7355                           
  7356                           	psect	text38
  7357   00167A                     __ptext38:
  7358                           	callstack 0
  7359   00167A                     _RSI_Timer0:
  7360                           	callstack 26
  7361   00167A                     
  7362                           ;TAD_Timer.c: 25:     TMR0 = 64911;
  7363   00167A  0EFD               	movlw	253
  7364   00167C  6ED7               	movwf	215,c	;volatile
  7365   00167E  0E8F               	movlw	143
  7366   001680  6ED6               	movwf	214,c	;volatile
  7367   001682                     
  7368                           ;TAD_Timer.c: 26:     TMR0IF = 0;
  7369   001682  94F2               	bcf	4082,2,c	;volatile
  7370   001684                     
  7371                           ;TAD_Timer.c: 27:     Tics++;
  7372   001684  0E01               	movlw	1
  7373   001686  2611               	addwf	_Tics^0,f,c	;volatile
  7374   001688  0E00               	movlw	0
  7375   00168A  2212               	addwfc	(_Tics+1)^0,f,c	;volatile
  7376   00168C  2213               	addwfc	(_Tics+2)^0,f,c	;volatile
  7377   00168E  2214               	addwfc	(_Tics+3)^0,f,c	;volatile
  7378   001690  0012               	return		;funcret
  7379   001692                     __end_of_RSI_Timer0:
  7380                           	callstack 0
  7381                           
  7382                           	psect	rparam
  7383   000001                     ___rparam_used  equ	1
  7384   000000                     ___param_bank   equ	0
  7385   000000                     __Lparam        equ	__Lrparam
  7386   000000                     __Hparam        equ	__Hrparam
  7387                           
  7388                           	psect	temp
  7389   00006B                     btemp:
  7390                           	callstack 0
  7391   00006B                     	ds	1
  7392   00006B                     int$flags       set	btemp
  7393   00006C                     wtemp8          set	btemp+1
  7394   00006C                     ttemp5          set	btemp+1
  7395   00006F                     ttemp6          set	btemp+4
  7396   000073                     ttemp7          set	btemp+8
  7397                           
  7398                           	psect	idloc
  7399                           
  7400                           ;Config register IDLOC0 @ 0x200000
  7401                           ;	unspecified, using default values
  7402   200000                     	org	2097152
  7403   200000  FF                 	db	255
  7404                           
  7405                           ;Config register IDLOC1 @ 0x200001
  7406                           ;	unspecified, using default values
  7407   200001                     	org	2097153
  7408   200001  FF                 	db	255
  7409                           
  7410                           ;Config register IDLOC2 @ 0x200002
  7411                           ;	unspecified, using default values
  7412   200002                     	org	2097154
  7413   200002  FF                 	db	255
  7414                           
  7415                           ;Config register IDLOC3 @ 0x200003
  7416                           ;	unspecified, using default values
  7417   200003                     	org	2097155
  7418   200003  FF                 	db	255
  7419                           
  7420                           ;Config register IDLOC4 @ 0x200004
  7421                           ;	unspecified, using default values
  7422   200004                     	org	2097156
  7423   200004  FF                 	db	255
  7424                           
  7425                           ;Config register IDLOC5 @ 0x200005
  7426                           ;	unspecified, using default values
  7427   200005                     	org	2097157
  7428   200005  FF                 	db	255
  7429                           
  7430                           ;Config register IDLOC6 @ 0x200006
  7431                           ;	unspecified, using default values
  7432   200006                     	org	2097158
  7433   200006  FF                 	db	255
  7434                           
  7435                           ;Config register IDLOC7 @ 0x200007
  7436                           ;	unspecified, using default values
  7437   200007                     	org	2097159
  7438   200007  FF                 	db	255
  7439                           
  7440                           	psect	config
  7441                           
  7442                           ; Padding undefined space
  7443   300000                     	org	3145728
  7444   300000  FF                 	db	255
  7445                           
  7446                           ;Config register CONFIG1H @ 0x300001
  7447                           ;	Oscillator
  7448                           ;	OSC = HS, HS Oscillator
  7449                           ;	Fail-Safe Clock Monitor Enable bit
  7450                           ;	FCMEN = 0x0, unprogrammed default
  7451                           ;	Internal/External Oscillator Switchover bit
  7452                           ;	IESO = 0x0, unprogrammed default
  7453   300001                     	org	3145729
  7454   300001  02                 	db	2
  7455                           
  7456                           ;Config register CONFIG2L @ 0x300002
  7457                           ;	Power-up Timer Enable bit
  7458                           ;	PWRT = OFF, PWRT disabled
  7459                           ;	Brown-out Reset Enable bits
  7460                           ;	BOR = OFF, Brown-out Reset disabled in hardware and software
  7461                           ;	Brown-out Reset Voltage bits
  7462                           ;	BORV = 0x3, unprogrammed default
  7463   300002                     	org	3145730
  7464   300002  19                 	db	25
  7465                           
  7466                           ;Config register CONFIG2H @ 0x300003
  7467                           ;	Watchdog Timer Enable bit
  7468                           ;	WDT = OFF, WDT disabled (control is placed on the SWDTEN bit)
  7469                           ;	Watchdog Timer Postscale Select bits
  7470                           ;	WDTPS = 0xF, unprogrammed default
  7471   300003                     	org	3145731
  7472   300003  1E                 	db	30
  7473                           
  7474                           ; Padding undefined space
  7475   300004                     	org	3145732
  7476   300004  FF                 	db	255
  7477                           
  7478                           ;Config register CONFIG3H @ 0x300005
  7479                           ;	CCP2 MUX bit
  7480                           ;	CCP2MX = 0x1, unprogrammed default
  7481                           ;	PORTB A/D Enable bit
  7482                           ;	PBADEN = DIG, PORTB<4:0> pins are configured as digital I/O on Reset
  7483                           ;	Low-Power Timer1 Oscillator Enable bit
  7484                           ;	LPT1OSC = 0x0, unprogrammed default
  7485                           ;	MCLR Pin Enable bit
  7486                           ;	MCLRE = OFF, RE3 input pin enabled; MCLR disabled
  7487   300005                     	org	3145733
  7488   300005  01                 	db	1
  7489                           
  7490                           ;Config register CONFIG4L @ 0x300006
  7491                           ;	Stack Full/Underflow Reset Enable bit
  7492                           ;	STVREN = 0x1, unprogrammed default
  7493                           ;	Single-Supply ICSP Enable bit
  7494                           ;	LVP = OFF, Single-Supply ICSP disabled
  7495                           ;	Boot Block Size Select bits
  7496                           ;	BBSIZ = 0x0, unprogrammed default
  7497                           ;	Extended Instruction Set Enable bit
  7498                           ;	XINST = 0x0, unprogrammed default
  7499                           ;	Background Debugger Enable bit
  7500                           ;	DEBUG = OFF, Background debugger disabled, RB6 and RB7 configured as general purpose I
      +                          /O pins
  7501   300006                     	org	3145734
  7502   300006  81                 	db	129
  7503                           
  7504                           ; Padding undefined space
  7505   300007                     	org	3145735
  7506   300007  FF                 	db	255
  7507                           
  7508                           ;Config register CONFIG5L @ 0x300008
  7509                           ;	unspecified, using default values
  7510                           ;	Code Protection bit
  7511                           ;	CP0 = 0x1, unprogrammed default
  7512                           ;	Code Protection bit
  7513                           ;	CP1 = 0x1, unprogrammed default
  7514   300008                     	org	3145736
  7515   300008  03                 	db	3
  7516                           
  7517                           ;Config register CONFIG5H @ 0x300009
  7518                           ;	unspecified, using default values
  7519                           ;	Boot Block Code Protection bitProtect Boot
  7520                           ;	CPB = 0x1, unprogrammed default
  7521                           ;	Data EEPROM Code Protection bit
  7522                           ;	CPD = 0x1, unprogrammed default
  7523   300009                     	org	3145737
  7524   300009  C0                 	db	192
  7525                           
  7526                           ;Config register CONFIG6L @ 0x30000A
  7527                           ;	unspecified, using default values
  7528                           ;	Write Protection bit
  7529                           ;	WRT0 = 0x1, unprogrammed default
  7530                           ;	Write Protection bit
  7531                           ;	WRT1 = 0x1, unprogrammed default
  7532   30000A                     	org	3145738
  7533   30000A  03                 	db	3
  7534                           
  7535                           ;Config register CONFIG6H @ 0x30000B
  7536                           ;	unspecified, using default values
  7537                           ;	Configuration Register Write Protection bit
  7538                           ;	WRTC = 0x1, unprogrammed default
  7539                           ;	Boot Block Write Protection bit
  7540                           ;	WRTB = 0x1, unprogrammed default
  7541                           ;	Data EEPROM Write Protection bit
  7542                           ;	WRTD = 0x1, unprogrammed default
  7543   30000B                     	org	3145739
  7544   30000B  E0                 	db	224
  7545                           
  7546                           ;Config register CONFIG7L @ 0x30000C
  7547                           ;	unspecified, using default values
  7548                           ;	Table Read Protection bit
  7549                           ;	EBTR0 = 0x1, unprogrammed default
  7550                           ;	Table Read Protection bit
  7551                           ;	EBTR1 = 0x1, unprogrammed default
  7552   30000C                     	org	3145740
  7553   30000C  03                 	db	3
  7554                           
  7555                           ;Config register CONFIG7H @ 0x30000D
  7556                           ;	unspecified, using default values
  7557                           ;	Boot Block Table Read Protection bit
  7558                           ;	EBTRB = 0x1, unprogrammed default
  7559   30000D                     	org	3145741
  7560   30000D  40                 	db	64
  7561                           tosu	equ	0xFFF
  7562                           tosh	equ	0xFFE
  7563                           tosl	equ	0xFFD
  7564                           stkptr	equ	0xFFC
  7565                           pclatu	equ	0xFFB
  7566                           pclath	equ	0xFFA
  7567                           pcl	equ	0xFF9
  7568                           tblptru	equ	0xFF8
  7569                           tblptrh	equ	0xFF7
  7570                           tblptrl	equ	0xFF6
  7571                           tablat	equ	0xFF5
  7572                           prodh	equ	0xFF4
  7573                           prodl	equ	0xFF3
  7574                           indf0	equ	0xFEF
  7575                           postinc0	equ	0xFEE
  7576                           postdec0	equ	0xFED
  7577                           preinc0	equ	0xFEC
  7578                           plusw0	equ	0xFEB
  7579                           fsr0h	equ	0xFEA
  7580                           fsr0l	equ	0xFE9
  7581                           wreg	equ	0xFE8
  7582                           indf1	equ	0xFE7
  7583                           postinc1	equ	0xFE6
  7584                           postdec1	equ	0xFE5
  7585                           preinc1	equ	0xFE4
  7586                           plusw1	equ	0xFE3
  7587                           fsr1h	equ	0xFE2
  7588                           fsr1l	equ	0xFE1
  7589                           bsr	equ	0xFE0
  7590                           indf2	equ	0xFDF
  7591                           postinc2	equ	0xFDE
  7592                           postdec2	equ	0xFDD
  7593                           preinc2	equ	0xFDC
  7594                           plusw2	equ	0xFDB
  7595                           fsr2h	equ	0xFDA
  7596                           fsr2l	equ	0xFD9
  7597                           status	equ	0xFD8

Data Sizes:
    Strings     401
    Constant    24
    Data        20
    BSS         115
    Persistent  0
    Stack       0

Auto Spaces:
    Space          Size  Autos    Used
    COMRAM          126     21     106
    BANK0           128      0      50
    BANK1           256      0       0

Pointer List with Targets:

    lista	PTR const unsigned char  size(2) Largest target is 6
		 -> STR_1(CODE[2]), STR_10(CODE[5]), STR_11(CODE[6]), STR_12(CODE[2]), 
		 -> STR_2(CODE[5]), STR_3(CODE[6]), STR_4(CODE[2]), STR_5(CODE[5]), 
		 -> STR_6(CODE[5]), STR_7(CODE[5]), STR_8(CODE[3]), STR_9(CODE[5]), 
		 -> NULL(NULL[0]), 

    password@TAD_Controller$F1163	PTR unsigned char  size(1) Largest target is 8
		 -> password(COMRAM[8]), NULL(NULL[0]), 

    sp__getPassword	PTR unsigned char  size(1) Largest target is 8
		 -> password(COMRAM[8]), 

    teclas	const PTR const unsigned char [4][3] size(2) Largest target is 6
		 -> STR_1(CODE[2]), STR_10(CODE[5]), STR_11(CODE[6]), STR_12(CODE[2]), 
		 -> STR_2(CODE[5]), STR_3(CODE[6]), STR_4(CODE[2]), STR_5(CODE[5]), 
		 -> STR_6(CODE[5]), STR_7(CODE[5]), STR_8(CODE[3]), STR_9(CODE[5]), 

    TI_NewTimer@TimerHandle	PTR unsigned char  size(1) Largest target is 1
		 -> soundTimerHandle(COMRAM[1]), timer1s(COMRAM[1]), timerHandle(COMRAM[1]), timerHandle@TAD_Button$F1132(COMRAM[1]), 
		 -> timerHandle@TAD_Controller$F1167(COMRAM[1]), timerHandle@TAD_Matrix$F1022(COMRAM[1]), timerPWM(COMRAM[1]), timerRamp(COMRAM[1]), 

    uid_ptr	PTR unsigned char  size(2) Largest target is 33
		 -> STR_13(CODE[22]), STR_14(CODE[32]), STR_15(CODE[33]), STR_16(CODE[23]), 
		 -> STR_17(CODE[31]), STR_18(CODE[32]), STR_19(CODE[31]), STR_20(CODE[23]), 
		 -> STR_21(CODE[31]), STR_22(CODE[26]), STR_23(CODE[26]), STR_24(CODE[33]), 
		 -> STR_25(CODE[28]), STR_26(CODE[29]), STR_27(CODE[28]), STR_28(CODE[31]), 
		 -> STR_29(CODE[30]), NULL(NULL[0]), 


Critical Paths under _main in COMRAM

    _motorSpeaker->_processSpeakerSound
    _processSpeakerSound->_TI_GetTics
    _motorMatrix->_TI_GetTics
    _motorLEDs->_TI_GetTics
    _motorController->_TI_GetTics
    _speaker_sound->_TI_ResetTics
    _motorButton->_TI_GetTics
    _Speaker_Init->_TI_NewTimer
    _Matrix_Init->_TI_NewTimer
    _LED_Init->_TI_NewTimer
    _Controller_Init->_TI_NewTimer
    _Button_Init->_TI_NewTimer

Critical Paths under _RSI_HIGH in COMRAM

    None.

Critical Paths under _main in BANK0

    None.

Critical Paths under _RSI_HIGH in BANK0

    None.

Critical Paths under _main in BANK1

    None.

Critical Paths under _RSI_HIGH in BANK1

    None.

Call Graph Tables:

 ---------------------------------------------------------------------------------
 (Depth) Function   	        Calls       Base Space   Used Autos Params    Refs
 ---------------------------------------------------------------------------------
 (0) _main                                                 0     0      0    1730
                        _Button_Init
                    _Controller_Init
                          _Hall_Init
                           _LED_Init
                        _Matrix_Init
                           _SIO_Init
                       _Speaker_Init
                            _TI_Init
                        _motorButton
                    _motorController
                          _motorHall
                          _motorLEDs
                        _motorMatrix
                       _motorSpeaker
 ---------------------------------------------------------------------------------
 (1) _motorSpeaker                                         0     0      0     310
                         _TI_GetTics
                       _TI_ResetTics
                _processSpeakerSound
                      _speaker_sound
 ---------------------------------------------------------------------------------
 (2) _processSpeakerSound                                  8     8      0     119
                                             13 COMRAM     8     8      0
                         _TI_GetTics
 ---------------------------------------------------------------------------------
 (1) _motorMatrix                                          0     0      0     120
                       _SIO_SendChar
                         _TI_GetTics
                       _TI_ResetTics
                             _getKey
                         _keyPressed
                           _nextChar
 ---------------------------------------------------------------------------------
 (2) _nextChar                                             2     2      0       0
                                              0 COMRAM     2     2      0
 ---------------------------------------------------------------------------------
 (2) _keyPressed                                           1     1      0      24
                                              0 COMRAM     1     1      0
 ---------------------------------------------------------------------------------
 (2) _getKey                                               6     6      0       0
                                              0 COMRAM     6     6      0
 ---------------------------------------------------------------------------------
 (1) _motorLEDs                                            1     1      0      81
                                             13 COMRAM     1     1      0
                         _TI_GetTics
                       _TI_ResetTics
 ---------------------------------------------------------------------------------
 (1) _motorHall                                            0     0      0       0
 ---------------------------------------------------------------------------------
 (1) _motorController                                      4     4      0     475
                                             13 COMRAM     4     4      0
                      _SIO_CharAvail
                        _SIO_GetChar
                       _SIO_SendChar
                        _SIO_TxAvail
                         _TI_GetTics
                       _TI_ResetTics
                          _getButton
                            _getHall
                        _getPassword
                        _passwordSet
                           _setAlarm
                       _setIntensity
                          _setMatrix
                              _setOK
                         _setSpeaker
                            _setStop
                      _speaker_sound
 ---------------------------------------------------------------------------------
 (2) _speaker_sound                                        9     7      2     110
                                              1 COMRAM     9     7      2
                       _TI_ResetTics
 ---------------------------------------------------------------------------------
 (2) _setStop                                              1     1      0      15
                                              0 COMRAM     1     1      0
 ---------------------------------------------------------------------------------
 (2) _setSpeaker                                           1     1      0      15
                                              0 COMRAM     1     1      0
 ---------------------------------------------------------------------------------
 (2) _setOK                                                2     2      0      15
                                              0 COMRAM     2     2      0
 ---------------------------------------------------------------------------------
 (2) _setMatrix                                            1     1      0      15
                                              0 COMRAM     1     1      0
 ---------------------------------------------------------------------------------
 (2) _setIntensity                                         1     1      0      15
                                              0 COMRAM     1     1      0
 ---------------------------------------------------------------------------------
 (2) _setAlarm                                             2     2      0      15
                                              0 COMRAM     2     2      0
 ---------------------------------------------------------------------------------
 (2) _passwordSet                                          1     1      0      15
                                              0 COMRAM     1     1      0
 ---------------------------------------------------------------------------------
 (2) _getPassword                                          2     0      2       0
                                              0 COMRAM     2     0      2
 ---------------------------------------------------------------------------------
 (2) _getHall                                              1     1      0      15
                                              0 COMRAM     1     1      0
 ---------------------------------------------------------------------------------
 (2) _getButton                                            1     1      0      15
                                              0 COMRAM     1     1      0
 ---------------------------------------------------------------------------------
 (2) _SIO_TxAvail                                          0     0      0       0
 ---------------------------------------------------------------------------------
 (2) _SIO_SendChar                                         1     1      0      15
                                              0 COMRAM     1     1      0
 ---------------------------------------------------------------------------------
 (2) _SIO_GetChar                                          0     0      0       0
 ---------------------------------------------------------------------------------
 (2) _SIO_CharAvail                                        3     1      2       0
                                              0 COMRAM     3     1      2
 ---------------------------------------------------------------------------------
 (1) _motorButton                                          0     0      0      81
                         _TI_GetTics
                       _TI_ResetTics
 ---------------------------------------------------------------------------------
 (3) _TI_ResetTics                                         1     1      0      29
                                              0 COMRAM     1     1      0
 ---------------------------------------------------------------------------------
 (3) _TI_GetTics                                          13     9      4      52
                                              0 COMRAM    13     9      4
 ---------------------------------------------------------------------------------
 (1) _TI_Init                                              1     1      0      68
                                              0 COMRAM     1     1      0
 ---------------------------------------------------------------------------------
 (1) _Speaker_Init                                         0     0      0     119
                        _TI_NewTimer
 ---------------------------------------------------------------------------------
 (1) _SIO_Init                                             0     0      0       0
 ---------------------------------------------------------------------------------
 (1) _Matrix_Init                                          0     0      0     119
                        _TI_NewTimer
 ---------------------------------------------------------------------------------
 (1) _LED_Init                                             0     0      0     119
                        _TI_NewTimer
 ---------------------------------------------------------------------------------
 (1) _Hall_Init                                            0     0      0       0
 ---------------------------------------------------------------------------------
 (1) _Controller_Init                                      0     0      0     119
                        _TI_NewTimer
 ---------------------------------------------------------------------------------
 (1) _Button_Init                                          0     0      0     119
                        _TI_NewTimer
 ---------------------------------------------------------------------------------
 (2) _TI_NewTimer                                          3     2      1     119
                                              0 COMRAM     3     2      1
 ---------------------------------------------------------------------------------
 Estimated maximum stack depth 3
 ---------------------------------------------------------------------------------
 (Depth) Function   	        Calls       Base Space   Used Autos Params    Refs
 ---------------------------------------------------------------------------------
 (4) _RSI_HIGH                                             0     0      0       0
                         _RSI_Timer0
 ---------------------------------------------------------------------------------
 (5) _RSI_Timer0                                           0     0      0       0
 ---------------------------------------------------------------------------------
 Estimated maximum stack depth 5
 ---------------------------------------------------------------------------------

 Call Graph Graphs:

 _main (ROOT)
   _Button_Init
     _TI_NewTimer
   _Controller_Init
     _TI_NewTimer
   _Hall_Init
   _LED_Init
     _TI_NewTimer
   _Matrix_Init
     _TI_NewTimer
   _SIO_Init
   _Speaker_Init
     _TI_NewTimer
   _TI_Init
   _motorButton
     _TI_GetTics
     _TI_ResetTics
   _motorController
     _SIO_CharAvail
     _SIO_GetChar
     _SIO_SendChar
     _SIO_TxAvail
     _TI_GetTics
     _TI_ResetTics
     _getButton
     _getHall
     _getPassword
     _passwordSet
     _setAlarm
     _setIntensity
     _setMatrix
     _setOK
     _setSpeaker
     _setStop
     _speaker_sound
       _TI_ResetTics
   _motorHall
   _motorLEDs
     _TI_GetTics
     _TI_ResetTics
   _motorMatrix
     _SIO_SendChar
     _TI_GetTics
     _TI_ResetTics
     _getKey
     _keyPressed
     _nextChar
   _motorSpeaker
     _TI_GetTics
     _TI_ResetTics
     _processSpeakerSound
       _TI_GetTics
     _speaker_sound

 _RSI_HIGH (ROOT)
   _RSI_Timer0

Address spaces:
Name               Size   Autos  Total    Usage
BIGRAM             511      0       0      0.0%
BITBANK1           256      0       0      0.0%
BANK1              256      0       0      0.0%
BITBANK0           128      0       0      0.0%
BANK0              128      0      50     39.1%
BITCOMRAM          126      0       0      0.0%
COMRAM             126     21     106     84.1%
BITBIGSFRh          82      0       0      0.0%
BITBIGSFRlh         43      0       0      0.0%
BITBIGSFRll          1      0       0      0.0%
STACK                0      0       0      0.0%
DATA                 0      0     156      0.0%


Microchip Technology PIC18 Macro Assembler V3.00 build 20241204225717 
Symbol Table                                                                                   Mon Mar 09 16:52:53 2026

                                _i 001F                         _RSI_Timer0 167A  
                               l72 1400                                 l66 1596  
                               l76 162A                                 l79 144C  
                       _TI_GetTics 1402                                l111 16A6  
                              l121 134C                                l201 1452  
                              l114 171C                                l131 115A  
                              l204 146C                                l132 1128  
                              l117 1714                                l206 1496  
                              l150 0F8C                                l232 172C  
                              l320 151E                                l330 12D0  
                              l315 15E2                                l171 1660  
                              l235 1606                                l323 1236  
                              l180 1734                                l500 013E  
                              l405 16DA                                l229 1678  
                              l421 11D0                                l341 1730  
                              l325 124C                                l414 1160  
                              l174 1646                                l238 15BC  
                              l510 024C                                l326 1278  
                              l334 13AA                                l350 0E6E  
                              l423 1220                                l415 1174  
                              l183 1702                                l327 1262  
                              l192 1738                                l408 16F8  
                              l344 1724                                l256 106E  
                              l248 0F92                                l177 16CE  
                              l338 16E4                                l530 04AA  
                              l506 01DE                                l258 1090  
                              l419 1190                                l195 16EE  
                              l371 0CE4                                l372 0D10  
                              l373 0CFA                                l383 0DA2  
                              l369 0CCE                                l538 058C  
                              l484 170C                                l565 0804  
                              l494 00A4                                l586 0A62  
                              l589 0B4A                      SIO_SendChar@c 0042  
                              u110 16CC                                u111 16C6  
                              u120 15FA                                u200 1230  
                              u121 15F2                                u201 122C  
                              u210 1244                                u211 1240  
                              u116 16CE                                u140 15AE  
                              u220 125A                                u141 15A6  
                              u221 1256                                u230 1270  
                              u231 126C                                u240 1360  
                              u241 135C                                u138 15FC  
                              u250 138E                                u251 138A  
                              u158 15B0                        _soundActive 0036  
                              _idx 0027                                _key 0028  
                              prod 0FF3                                wreg 0FE8  
                      _soundPeriod 0009                   ?_Controller_Init 0042  
                             l2201 13CA                               l2041 1480  
                             l2033 144E                               l1401 1390  
                             l3001 1554                               l2203 13E6  
                             l1403 16DC                               l2035 1460  
                             l2205 13F6                               l2301 15E0  
                             l1405 16E2                               l1413 1720  
                             l2221 1320                               l2213 12E8  
                             l2037 147A                               l2303 16D0  
                             l2311 1674                               l1343 16FC  
                             l1335 16BC                               l1415 16F0  
                             l2223 132C                               l2215 12EC  
                             l2231 10A2                               l2305 16D2  
                             l2321 1704                               l2313 1676  
                             l1345 1700                               l1417 16F6  
                             l1353 1728                               l2225 1334  
                             l2217 12EE                               l2209 12D4  
                             l2401 025E                               l2241 1146  
                             l2233 10A8                               l2307 1662  
                             l1427 1648                               l2315 1692  
                             l1339 1732                               l1347 16E6  
                             l1355 15E6                               l1291 1718  
                             l2227 1346                               l2219 1310  
                             l2411 02A2                               l2403 0264  
                             l2331 0036                               l2323 0024  
                             l2251 14E2                               l2243 114A  
                             l2235 10BE                               l2309 1672  
                             l1429 1658                               l2317 16A2  
                             l2245 162C                               l1349 16EC  
                             l1357 159A                               l1293 1710  
                             l2501 04F0                               l2413 02B6  
                             l2421 02C8                               l2405 026A  
                             l2341 009E                               l2333 003C  
                             l2325 0028                               l1381 125A  
                             l2253 14F0                               l2261 151C  
                             l2237 10F4                               l2229 1092  
                             l2319 16A4                               l2191 1418  
                             l2183 160A                               l2511 0524  
                             l2431 02F0                               l2423 02DA  
                             l2415 02BC                               l2407 0270  
                             l2351 00D8                               l2343 00A6  
                             l2335 0046                               l2327 0030  
                             l1383 1270                               l1375 1222  
                             l2255 14FE                               l1391 134E  
                             l2239 1118                               l1465 1736  
                             l2281 1582                               l2185 160C  
                             l2265 172E                               l2601 07A0  
                             l2521 058E                               l2513 0530  
                             l2505 0510                               l2441 0342  
                             l2433 02F8                               l2425 02E0  
                             l2417 02C0                               l2409 0292  
                             l2353 00DA                               l2345 00AE  
                             l2337 005A                               l2329 0032  
                             l1385 1278                               l1377 1230  
                             l2257 150C                               l2249 14DE  
                             l2195 13AC                               l2291 15BE  
                             l2283 158E                               l2275 1562  
                             l2187 1628                               l2531 05C6  
                             l2523 0592                               l2515 0544  
                             l2507 051E                               l2451 0378  
                             l2443 0354                               l2435 0308  
                             l2427 02E6                               l2419 02C2  
                             l2371 0178                               l2363 0140  
                             l2355 00E2                               l2347 00C2  
                             l2339 0082                               l1387 12B4  
                             l1379 1244                               l2259 151A  
                             l1395 1364                               l2197 13B2  
                             l2293 15C2                               l2285 1590  
                             l2277 1570                               l2269 1560  
                             l2189 1404                               l2701 0A06  
                             l2621 082A                               l2613 0806  
                             l2605 07A8                               l2541 0604  
                             l2533 05D8                               l2525 0598  
                             l2517 056C                               l2509 0520  
                             l2461 03C0                               l2453 037C  
                             l2445 035C                               l2437 032A  
                             l2429 02EE                               l2373 017A  
                             l2365 0146                               l2357 00F6  
                             l2349 00D0                               l1389 12B6  
                             l1397 1366                               l2295 15CA  
                             l2287 1592                               l2279 1572  
                             l2703 0A1A                               l2623 083C  
                             l2631 086E                               l2607 07BC  
                             l2543 0606                               l2535 05E8  
                             l2527 05AE                               l2471 0414  
                             l2455 037E                               l2447 0364  
                             l2439 0330                               l2391 022C  
                             l2383 01E0                               l2375 0182  
                             l2367 014E                               l2359 011E  
                             l1399 138E                               l2297 15D2  
                             l2289 1594                               l2705 0A42  
                             l2641 0896                               l2633 0878  
                             l2625 084E                               l2617 080E  
                             l2609 07E4                               l2561 0666  
                             l2553 0646                               l2545 0608  
                             l2537 05F4                               l2529 05B4  
                             l2481 0442                               l2473 0418  
                             l2465 03E0                               l2457 0384  
                             l2449 0370                               l2385 01E4  
                             l2377 0196                               l2369 0170  
                             l2713 0A6C                               l2801 0D14  
                             l2721 0B70                               l2299 15DA  
                             l2651 08D6                               l2643 08A8  
                             l2635 087A                               l2627 085E  
                             l2619 0824                               l2563 066E  
                             l2555 0658                               l2547 0610  
                             l2539 05FA                               l2491 048A  
                             l2467 0402                               l2475 0424  
                             l2459 0398                               l2395 024E  
                             l2387 01F0                               l2379 01BE  
                             l2811 0D56                               l2803 0D26  
                             l2731 0BD0                               l2723 0B84  
                             l2715 0B4C                               l2709 0A64  
                             l2661 0916                               l2645 08BA  
                             l2653 08DE                               l2637 087C  
                             l2581 0708                               l2573 06D0  
                             l2565 0674                               l2557 0660  
                             l2549 0620                               l2477 0436  
                             l2469 0412                               l2397 0252  
                             l2389 0204                               l2901 0FBC  
                             l2813 0D66                               l2805 0D36  
                             l2741 0BEC                               l2733 0BD2  
                             l2725 0BA6                               l2671 0942  
                             l2655 08F0                               l2663 091E  
                             l2647 08CC                               l2639 0884  
                             l2583 070A                               l2575 06D6  
                             l2567 0688                               l2559 0664  
                             l2495 04AC                               l2487 044E  
                             l2479 043C                               l2399 0258  
                             l2911 0FF8                               l2903 0FCC  
                             l2831 0DBE                               l2823 0D9A  
                             l2815 0D6E                               l2807 0D48  
                             l2751 0C1C                               l2743 0BF2  
                             l2735 0BE4                               l2727 0BB6  
                             l2719 0B60                               l2681 095A  
                             l2673 0948                               l2665 0926  
                             l2657 0902                               l2649 08D4  
                             l2593 076E                               l2585 0712  
                             l2577 06DE                               l2569 06B0  
                             l2497 04B4                               l2489 0462  
                             l2921 1058                               l2913 1008  
                             l2905 0FD4                               l2841 0DFC  
                             l2833 0DCE                               l2825 0DB2  
                             l2817 0D80                               l2809 0D50  
                             l2761 0C40                               l2753 0C24  
                             l2745 0C06                               l2737 0BE6  
                             l2729 0BC2                        _TI_NewTimer 13AC  
                             l2691 09CA                               l2683 096E  
                             l2675 094E                               l2667 0928  
                             l2659 0914                               l2595 077C  
                             l2587 0726                               l2579 0700  
                             l2499 04C8                               l2923 1068  
                             l2915 100A                               l2907 0FF0  
                             l2851 0E0C                               l2843 0DFE  
                             l2835 0DDA                               l2827 0DB6  
                             l2819 0D92                               l2771 0C6C  
                             l2755 0C38                               l2763 0C4A  
                             l2747 0C0E                               l2739 0BEA  
                             l2931 0E78                               l2693 09D2  
                             l2685 0996                               l2669 0930  
                             l2597 0784                               l2589 074E  
                             l2909 0FF6                               l2917 1030  
                             l2861 0E18                               l2853 0E10  
                             l2845 0E02                               l2837 0DE8  
                             l2773 0C6E                               l2757 0C3C  
                             l2749 0C16                               l2941 0EA8  
                             l2933 0E88                               l2871 116E  
                             l2695 09F4                               l2599 0798  
                             l2919 1052                               l2927 107A  
                             l2847 0E04                               l2839 0DEA  
                             l2791 0CC8                               l2783 0C82  
                             l2775 0C70                               l2767 0C54  
                             l2759 0C3E                               l2951 0EFC  
                             l2943 0EB4                               l2935 0E8C  
                             l2881 11C6                               l2873 1182  
                             l2697 09F6                               l2689 09B6  
                             l2849 0E08                               l2793 0CDC  
                             l2777 0C72                               l2769 0C68  
                             l2961 0F1E                               l2953 0F00  
                             l2945 0ED6                               l2937 0E92  
                             l2929 0E70                               l2883 11DE  
                             l2875 1186                               l2699 09FE  
                             l2891 0F8E                               l2795 0CF2  
                             l2787 0C9A                               l2779 0C78  
                             l2867 0E30                               l2963 0F3E  
                             l2947 0EEA                               l2939 0E98  
                             l2877 119E                               l2869 115C  
                             l2893 0F94                               l2797 0D08  
                             l2789 0CBA                               l2965 0F52  
                             l2957 0F0A                               l2949 0EEC  
                             l2973 0F6E                               l2981 152C  
                             l2879 11BE                               l2895 0FA4  
                             l2799 0D10                               l2967 0F54  
                             l2991 1540                               l2983 1530  
                             l2975 1520                               l2889 1202  
                             l2897 0FA8                               l2969 0F64  
                             l2993 1544                               l2985 1534  
                             l2977 1524                               l2899 0FB4  
                             l2995 1548                               l2987 1538  
                             l2979 1528                               l2997 154C  
                             l2989 153C                               l2999 1550  
                             STR_1 1FFC                               STR_2 1FE1  
                             STR_3 1FCB                               STR_4 1FFA  
                             STR_5 1FD7                               STR_6 1FE6  
                             STR_7 1FF0                               STR_8 1FF5  
                             STR_9 1FDC                               u2000 0996  
                             u2001 0992                               u2010 09F4  
                             u2011 09F0                               u2020 0A1A  
                             u2100 0C06                               u2021 0A16  
                             u2101 0C02                               u2030 0A42  
                             u2110 0C38                               u2031 0A3E  
                             u2111 0C34                               u1320 13C6  
                             u1080 1460                               u2200 0D36  
                             u2120 0C68                               u2040 0B5C  
                             u1400 1146                               u1321 13C2  
                             u1081 145C                               u2201 0D32  
                             u2121 0C64                               u2041 0B58  
                             u1401 1142                               u1330 13E6  
                             u1410 163E                               u1090 147A  
                             u2210 0D48                               u2130 0C96  
                             u2050 0B70                               u1331 13E2  
                             u1411 1636                               u1091 1476  
                             u2211 0D44                               u2131 0C92  
                             u2051 0B6C                               u2300 119E  
                             u1340 12E4                               u1500 00F6  
                             u1420 14F0                               u2220 0D66  
                             u2140 0CBA                               u2060 0B84  
                             u2301 119A                               u1341 12E0  
                             u1501 00F2                               u1421 14EC  
                             u2221 0D62                               u2141 0CB6  
                             u2061 0B80                               u2310 11BE  
                             u1350 1320                               u1510 011E  
                             u1430 14FE                               u2230 0D80  
                             u2150 0CC8                               u2070 0BA6  
                             u2311 11BA                               u1351 131C  
                             u1511 011A                               u1431 14FA  
                             u2231 0D7C                               u2151 0CC4  
                             u2071 0BA2                               u2320 11DE  
                             u1600 0308                               u1520 0170  
                             u2400 1052                               u1440 150C  
                             u2240 0D92                               u2160 0CDC  
                             u2080 0BB6                               u1360 10A2  
                             u2321 11DA                               u1601 0304  
                             u1521 016C                               u2401 104E  
                             u1441 1508                               u2241 0D8E  
                             u2161 0CD8                               u2081 0BB2  
                             u1361 109E                               u2330 11FE  
                             u1418 1640                               u1610 032A  
                             u1530 0196                               u2410 1068  
                             u1450 151A                               u2250 0DCE  
                             u2170 0CF2                               u2090 0BE4  
                             u1370 10F4                               u2331 11FA  
                             u1611 0326                               u1531 0192  
                             u2411 1064                               u1451 1516  
                             u2251 0DCA                               u2171 0CEE  
                             u2091 0BE0                               u1371 10F0  
                             u1460 1582                               u1700 04F0  
                             u1620 0342                               u1540 01BE  
                             u2340 0FA4                               u2260 0DFC  
                             u2180 0D08                               u1380 1106  
                             u2420 0E88                               u1461 157E  
                             u1701 04EC                               u1621 033E  
                             u1541 01BA                               u2341 0FA0  
                             u2261 0DF8                               u2181 0D04  
                             u1381 10FE                               u2421 0E84  
                             u1710 0544                               u1630 0398  
                             u1550 0204                               u1470 005A  
                             u2350 0FCC                               u2270 0E2C  
                             u2190 0D26                               u2430 0EA8  
                             u1711 0540                               u1631 0394  
                             u1551 0200                               u1471 0056  
                             u2351 0FC8                               u2271 0E28  
                             u2191 0D22                               u2431 0EA4  
                             u2280 116E                               u1800 0688  
                             u1720 056C                               u1640 03C0  
                             u1560 022C                               u1480 0082  
                             u2360 0FF0                               u2440 0ED6  
                             u2281 116A                               u1801 0684  
                             u1721 0568                               u1641 03BC  
                             u1561 0228                               u1481 007E  
                             u2361 0FEC                               u2441 0ED2  
                             u2290 1182                               u1810 06B0  
                             u1730 05AE                               u1650 0402  
                             u1570 0292                               u1490 00C2  
                             u2370 1008                               u2450 0EFC  
                             u2291 117E                               u1811 06AC  
                             u1731 05AA                               u1651 03FE  
                             u1571 028E                               u1491 00BE  
                             u2371 1004                               u2451 0EF8  
                             u1900 084E                               u1820 0700  
                             u1740 05C6                               u1660 0412  
                             u1580 02A2                               u2380 1020  
                             u2460 0F1A                               u1901 084A  
                             u1821 06FC                               u1741 05C2  
                             u1661 040E                               u1581 029E  
                             u2381 1018                               u2461 0F16  
                             u1910 085E                               u1830 0726  
                             u1750 05D8                               u1670 0462  
                             u1590 02B6                               u1398 1108  
                             u2470 0F3E                               u1911 085A  
                             u1831 0722                               u1751 05D4  
                             u1671 045E                               u1591 02B2  
                             u2471 0F3A                               u1920 0896  
                             u1840 074E                               u1760 05E8  
                             u1680 048A                               u2480 0F64  
                             u1921 0892                               u1841 074A  
                             u1761 05E4                               u1681 0486  
                             u2481 0F60                               u1930 08A8  
                             u1850 0798                               u1770 0620  
                             u1690 04C8                               u1931 08A4  
                             u1851 0794                               u1771 061C  
                             u1691 04C4                               u1940 08BA  
                             u1860 07BC                               u1780 0642  
                             u1941 08B6                               u1861 07B8  
                             u1781 063E                               u1950 08CC  
                             u1870 07E4                               u1790 0658  
                             u2398 1022                               u1951 08C8  
                             u1871 07E0                               u1791 0654  
                             u1960 08F0                               u1880 0824  
                             u1961 08EC                               u1881 0820  
                             u1970 0902                               u1890 083C  
                             u1971 08FE                               u1891 0838  
                             u1980 0914                               u1981 0910  
                             u1990 096E                               u1991 096A  
                             i2l61 1690                               i2l38 001C  
                             _TMR0 0FD6                               _Tics 0011  
                             _flag 0032                               _main 1520  
                             fsr1h 0FE2                               fsr2h 0FDA  
                             indf2 0FDF                               fsr1l 0FE1  
                             fsr2l 0FD9                               _rows 002E  
                             btemp 006B                               _stop 0037  
                  __end_of_TI_Init 1598                               prodh 0FF4  
                             prodl 0FF3                               start 0020  
                  ??_speaker_sound 0045                    _motorController 0024  
                     ___param_bank 0000       _timerHandle@TAD_Button$F1132 003B  
                 __end_of_LED_Init 167A                      ??_Button_Init 0045  
                            ?_main 0042                              STR_10 1FEB  
                            STR_11 1FD1                              STR_20 1F9E  
                            STR_12 1FF8                              STR_21 1F0E  
                            STR_13 1FB5                              STR_22 1F84  
                            STR_14 1ECF                              STR_23 1F84  
                            STR_15 1E8E                              STR_16 1F9E  
                            STR_24 1E6D                              STR_25 1F68  
                            STR_17 1F0E                              STR_26 1F4B  
                            STR_18 1EAF                              STR_27 1F68  
                            STR_19 1EEF                              STR_28 1F0E  
                            STR_29 1F2D                              _T0CON 0FD5  
                            _RCREG 0FAE                              _SPBRG 0FAF  
                    ??_Matrix_Init 0045                              _TXREG 0FAD  
                  __end_of_getHall 16F0       _timerHandle@TAD_Matrix$F1022 003D  
                 __end_of_SIO_Init 1662                              _count 0039  
                 __end_of_RSI_HIGH 0020                              _setOK 15E4  
                            _lista 0017                       _TI_ResetTics 1608  
                            _start 0038                              _tries 001E  
 _timerHandle@TAD_Controller$F1167 003A                    __end_of_setStop 1716  
                            tablat 0FF5  processSpeakerSound@lastToggleTics 0005  
                            ttemp5 006C                              ttemp6 006F  
                            ttemp7 0073                              status 0FD8  
                            wtemp8 006C                      _soundDuration 000D  
                  __initialization 1498        __end_of_processSpeakerSound 115C  
                     __end_of_main 1560                        ?_RSI_Timer0 0042  
                   TI_Init@counter 0042                        ?_TI_GetTics 0042  
                 _soundTimerHandle 0040                             ??_main 0057  
                    __activetblptr 0002                __end_of_Button_Init 16DC  
                     ?_passwordSet 0042                             _ADCON1 0FC1  
                           ?_setOK 0042      _password@TAD_Controller$F1163 001B  
                        ??_TI_Init 0042                __end_of_Matrix_Init 15E4  
                           i2l1421 167A                             i2l1423 1682  
                           i2l2151 0018                             i2l1425 1684  
                           i2l2149 000A            __end_of_motorController 0B4C  
                           _TMR0IF 7F92                             _SPBRGH 0FB0  
                speaker_sound@tipo 0049                             _Timers 0080  
                     ?_motorButton 0042                             _getKey 1222  
                     ?_motorMatrix 0042                             _newRow 002C  
                           clear_0 14BE                             clear_1 14CA  
                           _teclas 1E55                          ??_getHall 0042  
                           isa$std 0001                             _yesBuf 0001  
                           _yesIdx 001A                   __end_of_nextChar 13AC  
                 __end_of_setAlarm 15BE                             _psswrd 0057  
                     ?_SIO_GetChar 0042              _flag@TAD_Matrix$F1045 0023  
                     __pdataCOMRAM 0057                       __mediumconst 1E54  
                        ??_setStop 0042                             tblptrh 0FF7  
                           tblptrl 0FF6                             tblptru 0FF8  
                     ?_SIO_TxAvail 0042                         __accesstop 0080  
          __end_of__initialization 14D0                          ?_LED_Init 0042  
                __end_of_Hall_Init 173A                      ___rparam_used 0001  
           _count@TAD_Matrix$F1044 0024                     __pcstackCOMRAM 0042  
                    __end_of_setOK 1608                          ?_SIO_Init 0042  
                        ?_RSI_HIGH 0042               TI_NewTimer@Comptador 0044  
                      _Button_Init 16D0                        _Matrix_Init 15BE  
                      setAlarm@aux 0043                            ??_setOK 0042  
                     ?_TI_NewTimer 0042                         __pbssBANK0 0080  
                 ?_motorController 0042                         ??_LED_Init 0045  
                    ?_setIntensity 0042             TI_NewTimer@TimerHandle 0042  
            __end_of_SIO_CharAvail 1648            TI_ResetTics@TimerHandle 0042  
                          ?_getKey 0042                         ??_SIO_Init 0042  
                       ??_RSI_HIGH 0042                        setMatrix@st 0042  
                          _TI_Init 1560                      ?_Speaker_Init 0042  
                   ??_setIntensity 0042                     motorLEDs@state 0031  
                        ?_nextChar 0042                          ?_setAlarm 0042  
                       _lastColumn 0029                  __end_of_getButton 16FA  
                          __Hparam 0000                         _keyPressed 14DE  
                          __Lparam 0000              __end_of_speaker_sound 134E  
                     ??_RSI_Timer0 0042                       ??_TI_GetTics 0046  
                          __pcinit 1498                            __ramtop 0200  
                          _getHall 16E6                            _editing 0026  
                          __ptext0 1520                            __ptext1 0E70  
                          __ptext2 1092                            __ptext3 0B4C  
                          __ptext4 134E                            __ptext5 14DE  
                          __ptext6 1222                            __ptext7 0F8E  
                          __ptext8 144E                            __ptext9 0024  
                 motorController@c 0051                            _columns 002D  
                          _lastRow 002A                      ?_motorSpeaker 0042  
                          _message 001C                            _setStop 170E  
                          _uid_ptr 0015                            _timer1s 003C  
                          _yes_aux 005F                     ??_Speaker_Init 0045  
             end_of_initialization 14D0                  __end_of_setMatrix 1726  
               __end_of_RSI_Timer0 1692                         getHall@aux 0042  
                    __Lmediumconst 1E54                  __end_of_motorLEDs 1092  
               __end_of_TI_GetTics 144E                         _setSpeaker 1716  
                __end_of_motorHall 1498                         ??_nextChar 0042  
                       ??_setAlarm 0042               processSpeakerSound@t 0053  
                        _RCSTAbits 0FAB                      ?_SIO_SendChar 0042  
                          postdec1 0FE5                            postinc0 0FEE  
                          postinc1 0FE6                            postinc2 0FDE  
            motorController@c_1197 0052                          _PORTBbits 0F81  
                   ??_motorSpeaker 0057                      ??_getPassword 0044  
            TI_GetTics@TimerHandle 004E                          _TRISBbits 0F93  
                        _TRISCbits 0F94                          _TRISDbits 0F95  
                 motorButton@state 0020                          _TXSTAbits 0FAC  
                      ?_keyPressed 0042                     ??_SIO_SendChar 0042  
                        _Hall_Init 1736                   motorMatrix@state 0022  
                ??_Controller_Init 0045                        _BAUDCONbits 0FB8  
                    __pidataCOMRAM 16A8                     __end_of_getKey 12D2  
                     ?_Button_Init 0042                     motorHall@state 0033  
                   __end_of_teclas 1E6D                   motorLEDs@pwmStep 0030  
             __end_of_setIntensity 172E                       ?_Matrix_Init 0042  
              start_initialization 1498                __end_of_getPassword 1732  
                motorSpeaker@state 0035                        ?_setSpeaker 0042  
                       ?_Hall_Init 0042                           ??_getKey 0042  
           _start@TAD_Matrix$F1042 0025               __end_of_Speaker_Init 16A8  
                      __pbssCOMRAM 0001                      ?_TI_ResetTics 0042  
                         ?_TI_Init 0042               __end_of_motorSpeaker 0F8E  
                        _hallEvent 0034                          __pintcode 0008  
                    __pmediumconst 1E54                          _getButton 16F0  
                         ?_getHall 0042                        __smallconst 1E54  
                        _isPressed 0021                      motorLEDs@duty 002F  
                      _getPassword 172E                           ?_setStop 0042  
                    ??_passwordSet 0042                     ??_TI_ResetTics 0042  
             __end_of_SIO_SendChar 1704                          _newColumn 002B  
                  _keyPressed$1050 0042                           _LED_Init 1662  
                         _LATCbits 0F8B                           _LATDbits 0F8C  
              _processSpeakerSound 1092                          _setMatrix 171E  
                         i2u131_40 0018                           i2u131_41 0014  
                         _PIR1bits 0F9E                          _motorLEDs 0F8E  
                      ??_Hall_Init 0042                          _motorHall 144E  
                       ?_getButton 0042                          _timerRamp 003E  
                    ??_motorButton 004F                      ??_motorMatrix 004F  
                         _SIO_Init 1648                           _RSI_HIGH 0008  
             motorController@state 0019                      ??_SIO_GetChar 0042  
             ?_processSpeakerSound 0042         _count@TAD_Controller$F1159 001D  
                    ??_SIO_TxAvail 0042                       setSpeaker@st 0042  
                      _INTCON2bits 0FF1                          copy_data0 14AC  
                  setIntensity@aux 0042           speaker_sound@duracion_ms 0043  
                  _Controller_Init 1704                __end_of_passwordSet 16E6  
                       ?_setMatrix 0042                       _setIntensity 1726  
                         __Hrparam 0000                       ??_keyPressed 0042  
                       ?_motorLEDs 0042                           __Lrparam 0000  
                       ?_motorHall 0042                      _SIO_CharAvail 162C  
            ??_processSpeakerSound 004F                  ??_motorController 004F  
              __end_of_motorButton 1222                __end_of_motorMatrix 0E70  
                         __ptext10 12D2                           __ptext11 170E  
                         __ptext20 16F0                           __ptext12 1716  
                         __ptext21 16BC                           __ptext13 15E4  
                         __ptext30 1648                           __ptext22 16FA  
                         __ptext14 171E                           __ptext31 15BE  
                         __ptext23 1732                           __ptext15 1726  
                         __ptext32 1662                           __ptext24 162C  
                         __ptext16 1598                           __ptext33 1736  
                         __ptext25 115C                           __ptext17 16DC  
                         __ptext34 1704                           __ptext26 1608  
                         __ptext18 172E                           __ptext35 16D0  
                         __ptext27 1402                           __ptext19 16E6  
                         __ptext36 13AC                           __ptext28 1560  
                         __ptext29 1692                           __ptext38 167A  
              __end_of_SIO_GetChar 1736                 __end_of_keyPressed 1520  
                    ??_TI_NewTimer 0043                       _Speaker_Init 1692  
                        setStop@st 0042                       ??_setSpeaker 0042  
              __end_of_SIO_TxAvail 16D0                           _nextChar 134E  
                         _setAlarm 1598                           _password 0063  
                         _timerPWM 003F                           isa$xinst 0000  
                    _speaker_sound 12D2                        ??_getButton 0042  
             __end_of_TI_ResetTics 162C                     ?_SIO_CharAvail 0042  
                         int$flags 006B                       getButton@aux 0042  
                       _INTCONbits 0FF2                       _motorSpeaker 0E70  
               __end_of_setSpeaker 171E          TI_GetTics@CopiaTicsActual 004A  
          __end_of_Controller_Init 170E                        _passwordSet 16DC  
                         setOK@aux 0043                           intlevel2 0000  
                      ??_setMatrix 0042                __end_of_TI_NewTimer 1402  
                _speaker_sound$325 004A                        ??_motorLEDs 004F  
                      ??_motorHall 0042                     ?_speaker_sound 0043  
                     _SIO_SendChar 16FA                        _motorButton 115C  
                      _motorMatrix 0B4C                        _timerHandle 0041  
                      _SIO_GetChar 1732                       ?_getPassword 0042  
                      _SIO_TxAvail 16BC                     passwordSet@aux 0042  
                  ??_SIO_CharAvail 0044  
